
Temp_Control_System.elf:     file format elf32-littleriscv
Temp_Control_System.elf
architecture: riscv:rv32, flags 0x00000112:
EXEC_P, HAS_SYMS, D_PAGED
start address 0x00000000

Program Header:
    LOAD off    0x00001000 vaddr 0x00000000 paddr 0x00000000 align 2**12
         filesz 0x00005f4c memsz 0x00005f4c flags r-x
    LOAD off    0x00007000 vaddr 0x20000000 paddr 0x00005f4c align 2**12
         filesz 0x000001bc memsz 0x000001cc flags rw-
    LOAD off    0x00007800 vaddr 0x20004800 paddr 0x20004800 align 2**12
         filesz 0x00000000 memsz 0x00000800 flags rw-

Sections:
Idx Name          Size      VMA       LMA       File off  Algn
  0 .init         00000004  00000000  00000000  00001000  2**1
                  CONTENTS, ALLOC, LOAD, READONLY, CODE
  1 .vector       000000fc  00000004  00000004  00001004  2**1
                  CONTENTS, ALLOC, LOAD, READONLY, CODE
  2 .text         00005e4c  00000100  00000100  00001100  2**3
                  CONTENTS, ALLOC, LOAD, READONLY, CODE
  3 .fini         00000000  00005f4c  00005f4c  000071bc  2**0
                  CONTENTS, ALLOC, LOAD, CODE
  4 .dalign       00000000  20000000  20000000  000071bc  2**0
                  CONTENTS
  5 .dlalign      00000000  00005f4c  00005f4c  000071bc  2**0
                  CONTENTS
  6 .data         000001bc  20000000  00005f4c  00007000  2**2
                  CONTENTS, ALLOC, LOAD, DATA
  7 .bss          00000010  200001bc  00006108  000071bc  2**2
                  ALLOC
  8 .stack        00000800  20004800  20004800  00007800  2**0
                  ALLOC
  9 .debug_info   0000de82  00000000  00000000  000071bc  2**0
                  CONTENTS, READONLY, DEBUGGING
 10 .debug_abbrev 00002448  00000000  00000000  0001503e  2**0
                  CONTENTS, READONLY, DEBUGGING
 11 .debug_loc    0000486f  00000000  00000000  00017486  2**0
                  CONTENTS, READONLY, DEBUGGING
 12 .debug_aranges 000008f0  00000000  00000000  0001bcf8  2**3
                  CONTENTS, READONLY, DEBUGGING
 13 .debug_ranges 000008a0  00000000  00000000  0001c5e8  2**3
                  CONTENTS, READONLY, DEBUGGING
 14 .debug_line   0000ba7a  00000000  00000000  0001ce88  2**0
                  CONTENTS, READONLY, DEBUGGING
 15 .debug_str    00002b99  00000000  00000000  00028902  2**0
                  CONTENTS, READONLY, DEBUGGING
 16 .comment      00000033  00000000  00000000  0002b49b  2**0
                  CONTENTS, READONLY
 17 .debug_frame  000022b8  00000000  00000000  0002b4d0  2**2
                  CONTENTS, READONLY, DEBUGGING
 18 .stab         00000084  00000000  00000000  0002d788  2**2
                  CONTENTS, READONLY, DEBUGGING
 19 .stabstr      00000117  00000000  00000000  0002d80c  2**0
                  CONTENTS, READONLY, DEBUGGING
SYMBOL TABLE:
00000000 l    d  .init	00000000 .init
00000004 l    d  .vector	00000000 .vector
00000100 l    d  .text	00000000 .text
00005f4c l    d  .fini	00000000 .fini
20000000 l    d  .dalign	00000000 .dalign
00005f4c l    d  .dlalign	00000000 .dlalign
20000000 l    d  .data	00000000 .data
200001bc l    d  .bss	00000000 .bss
20004800 l    d  .stack	00000000 .stack
00000000 l    d  .debug_info	00000000 .debug_info
00000000 l    d  .debug_abbrev	00000000 .debug_abbrev
00000000 l    d  .debug_loc	00000000 .debug_loc
00000000 l    d  .debug_aranges	00000000 .debug_aranges
00000000 l    d  .debug_ranges	00000000 .debug_ranges
00000000 l    d  .debug_line	00000000 .debug_line
00000000 l    d  .debug_str	00000000 .debug_str
00000000 l    d  .comment	00000000 .comment
00000000 l    d  .debug_frame	00000000 .debug_frame
00000000 l    d  .stab	00000000 .stab
00000000 l    d  .stabstr	00000000 .stabstr
00000000 l    df *ABS*	00000000 ./Startup/startup_ch32x035.o
00000004 l       .vector	00000000 _vector_base
00000000 l    df *ABS*	00000000 AiP650E.c
000003ee l     F .text	0000001a AiP_Display
00000000 l    df *ABS*	00000000 ch32x035_it.c
00000000 l    df *ABS*	00000000 main.c
00000000 l    df *ABS*	00000000 system_ch32x035.c
00000000 l    df *ABS*	00000000 ch32x035_adc.c
00000000 l    df *ABS*	00000000 ch32x035_flash.c
00000d9a l     F .text	000000ba ROM_ERASE
00000000 l    df *ABS*	00000000 ch32x035_gpio.c
00000000 l    df *ABS*	00000000 ch32x035_rcc.c
2000011c l     O .data	00000010 APBAHBPrescTable
00000000 l    df *ABS*	00000000 ch32x035_tim.c
00000000 l    df *ABS*	00000000 ch32x035_usart.c
00000000 l    df *ABS*	00000000 debug.c
200001bc l     O .bss	00000002 p_ms
200001be l     O .bss	00000001 p_us
200001a4 l     O .data	00000004 curbrk.4335
00000000 l    df *ABS*	00000000 s_floor.c
00000000 l    df *ABS*	00000000 w_log.c
00000000 l    df *ABS*	00000000 e_log.c
00000000 l    df *ABS*	00000000 s_matherr.c
00000000 l    df *ABS*	00000000 s_nan.c
00000000 l    df *ABS*	00000000 adddf3.c
00000000 l    df *ABS*	00000000 divdf3.c
00000000 l    df *ABS*	00000000 eqdf2.c
00000000 l    df *ABS*	00000000 gedf2.c
00000000 l    df *ABS*	00000000 muldf3.c
00000000 l    df *ABS*	00000000 subdf3.c
00000000 l    df *ABS*	00000000 unorddf2.c
00000000 l    df *ABS*	00000000 fixunsdfsi.c
00000000 l    df *ABS*	00000000 floatsidf.c
00000000 l    df *ABS*	00000000 addsf3.c
00000000 l    df *ABS*	00000000 divsf3.c
00000000 l    df *ABS*	00000000 gesf2.c
00000000 l    df *ABS*	00000000 lesf2.c
00000000 l    df *ABS*	00000000 mulsf3.c
00000000 l    df *ABS*	00000000 subsf3.c
00000000 l    df *ABS*	00000000 fixunssfsi.c
00000000 l    df *ABS*	00000000 floatsisf.c
00000000 l    df *ABS*	00000000 floatunsisf.c
00000000 l    df *ABS*	00000000 extendsfdf2.c
00000000 l    df *ABS*	00000000 truncdfsf2.c
00000000 l    df *ABS*	00000000 libgcc2.c
00000000 l    df *ABS*	00000000 errno.c
00000000 l    df *ABS*	00000000 printf.c
00000000 l    df *ABS*	00000000 puts.c
00000000 l    df *ABS*	00000000 wbuf.c
00000000 l    df *ABS*	00000000 wsetup.c
00000000 l    df *ABS*	00000000 fflush.c
00000000 l    df *ABS*	00000000 findfp.c
00004d84 l     F .text	00000066 std
00000000 l    df *ABS*	00000000 fwalk.c
00000000 l    df *ABS*	00000000 makebuf.c
00000000 l    df *ABS*	00000000 nano-mallocr.c
00000000 l    df *ABS*	00000000 nano-mallocr.c
00000000 l    df *ABS*	00000000 nano-vfprintf.c
0000520c l     F .text	00000028 __sfputc_r
00000000 l    df *ABS*	00000000 nano-vfprintf_i.c
00000000 l    df *ABS*	00000000 sbrkr.c
00000000 l    df *ABS*	00000000 stdio.c
00000000 l    df *ABS*	00000000 writer.c
00000000 l    df *ABS*	00000000 closer.c
00000000 l    df *ABS*	00000000 fstatr.c
00000000 l    df *ABS*	00000000 isattyr.c
00000000 l    df *ABS*	00000000 lseekr.c
00000000 l    df *ABS*	00000000 memchr.c
00000000 l    df *ABS*	00000000 mlock.c
00000000 l    df *ABS*	00000000 readr.c
00000000 l    df *ABS*	00000000 close.c
00000000 l    df *ABS*	00000000 fstat.c
00000000 l    df *ABS*	00000000 isatty.c
00000000 l    df *ABS*	00000000 lseek.c
00000000 l    df *ABS*	00000000 read.c
00000000 l    df *ABS*	00000000 libgcc2.c
00000000 l    df *ABS*	00000000 impure.c
2000012c l     O .data	00000060 impure_data
00000000 l    df *ABS*	00000000 s_lib_ver.c
00000000 l    df *ABS*	00000000 reent.c
00000738 g     F .text	000000a6 ADC2TEMP
000059fc g     F .text	00000028 _isatty_r
00004958 g     F .text	000000d4 _puts_r
00005a24 g     F .text	0000002c _lseek_r
00001760 g     F .text	00000112 log
00002940 g     F .text	0000006a .hidden __eqdf2
00004918 g     F .text	00000040 printf
20000990 g       .data	00000000 __global_pointer$
00000108 g     F .text	00000028 .hidden __riscv_save_8
00000b86  w      .text	00000000 TIM1_CC_IRQHandler
00000b86  w      .text	00000000 TIM2_UP_IRQHandler
00005946 g     F .text	00000030 __sseek
00004e3a g     F .text	00000066 __sinit
00004a36 g     F .text	000000bc __swbuf_r
000005c8 g     F .text	00000010 HardFault_Handler
00004df4 g     F .text	00000046 __sfmoreglue
20000198 g     O .data	00000004 CFGHR_tmpA
00005a6a g     F .text	00000002 __malloc_unlock
00000c9a g     F .text	00000012 ADC_DMACmd
00000b86  w      .text	00000000 USBPD_IRQHandler
00000154 g     F .text	0000000c .hidden __riscv_restore_3
00003ac2 g     F .text	000002b2 .hidden __divsf3
00001402 g     F .text	0000000e TIM_OC1PreloadConfig
00000b86  w      .text	00000000 SysTick_Handler
00000b86  w      .text	00000000 PVD_IRQHandler
00000140 g     F .text	00000020 .hidden __riscv_restore_10
000005c6 g     F .text	00000002 NMI_Handler
00000108 g     F .text	00000028 .hidden __riscv_save_11
000029aa g     F .text	000000ae .hidden __gtdf2
00004910 g     F .text	00000008 __errno
000014bc g     F .text	0000000a USART_GetFlagStatus
000059d2 g     F .text	0000002a _fstat_r
200001c8 g     O .bss	00000004 errno
00001610 g     F .text	00000150 floor
200001bc g       .bss	00000000 _sbss
00000800 g       *ABS*	00000000 __stack_size
00000d84 g     F .text	0000000a ADC_GetFlagStatus
0000155c g     F .text	00000054 USART_Printf_Init
00000b86  w      .text	00000000 EXTI25_16_IRQHandler
0000411a g     F .text	00000388 .hidden __subsf3
00000b86  w      .text	00000000 USBFS_IRQHandler
00000154 g     F .text	0000000c .hidden __riscv_restore_2
000013d2 g     F .text	00000016 TIM_CtrlPWMOutputs
00000c8a g     F .text	00000010 ADC_Cmd
00000522 g     F .text	00000018 AiP_Mode2Array
00004dea g     F .text	0000000a _cleanup_r
000036e6 g     F .text	00000072 .hidden __floatsidf
000013ba g     F .text	00000018 TIM_Cmd
00004a2c g     F .text	0000000a puts
20000194 g     O .data	00000004 SystemCoreClock
00000268 g     F .text	0000003c AiP650E_START
00005aa4 g     F .text	0000000c _fstat
00000004 g       .init	00000000 _einit
00003dfa g     F .text	0000008c .hidden __lesf2
000012b6 g     F .text	0000001e RCC_APB2PeriphClockCmd
00000100 g     F .text	00000030 .hidden __riscv_save_12
0000368a g     F .text	0000005c .hidden __fixunsdfsi
00000d8e g     F .text	0000000c ADC_CLKConfig
000010ce g     F .text	0000018e GPIO_Init
00000b86  w      .text	00000000 Break_Point_Handler
00000b86  w      .text	00000000 TIM2_TRG_COM_IRQHandler
00000140 g     F .text	00000020 .hidden __riscv_restore_11
00000b86  w      .text	00000000 TIM2_CC_IRQHandler
00000b86  w      .text	00000000 SPI1_IRQHandler
0000149e g     F .text	00000016 USART_Cmd
000058a8 g     F .text	0000002a _sbrk_r
00000130 g     F .text	0000000c .hidden __riscv_save_1
00000154 g     F .text	0000000c .hidden __riscv_restore_0
00000b86  w      .text	00000000 AWU_IRQHandler
00000b86  w      .text	00000000 EXTI7_0_IRQHandler
00005a6c g     F .text	0000002c _read_r
00000116 g     F .text	0000001a .hidden __riscv_save_7
0000468c g     F .text	000000ac .hidden __extendsfdf2
00001c5c g     F .text	00000730 .hidden __adddf3
00000b86  w      .text	00000000 Ecall_M_Mode_Handler
20004800 g       .stack	00000000 _heap_end
00005ab0 g     F .text	0000000c _isatty
200001a8 g     O .data	00000004 __fdlib_version
000014f0 g     F .text	00000036 Delay_Us
200001b0 g     O .data	00000004 _global_impure_ptr
0000014a g     F .text	00000016 .hidden __riscv_restore_5
00000b86  w      .text	00000000 DMA1_Channel4_IRQHandler
00000cc4 g     F .text	000000b8 ADC_RegularChannelConfig
00000b86  w      .text	00000000 ADC1_IRQHandler
000015ea g     F .text	00000026 _sbrk
00000b86  w      .text	00000000 TIM2_BRK_IRQHandler
00000d7c g     F .text	00000008 ADC_GetConversionValue
00000408 g     F .text	000000b0 soft_AiP650E_Read
0000014a g     F .text	00000016 .hidden __riscv_restore_6
00000b86  w      .text	00000000 USART3_IRQHandler
200001cc g       .bss	00000000 _ebss
00000b86  w      .text	00000000 DMA1_Channel7_IRQHandler
00001348 g     F .text	00000072 TIM_OC1Init
00000cac g     F .text	00000018 ADC_SoftwareStartConvCmd
000005ac g     F .text	0000001a AiP650E_Return_KEY
000014c6 g     F .text	0000002a Delay_Init
00003d74 g     F .text	00000086 .hidden __gtsf2
00000b86  w      .text	00000000 USBPDWakeUp_IRQHandler
00000b86  w      .text	00000000 EXTI15_8_IRQHandler
00001266 g     F .text	0000000e GPIO_SetBits
000013e8 g     F .text	0000001a TIM_ARRPreloadConfig
00000108 g     F .text	00000028 .hidden __riscv_save_9
00005eb0 g     O .text	00000020 __sf_fake_stderr
00000116 g     F .text	0000001a .hidden __riscv_save_4
00000b86  w      .text	00000000 I2C1_EV_IRQHandler
00000b86  w      .text	00000000 USART4_IRQHandler
00001278 g     F .text	0000003e RCC_GetClocksFreq
00000b86  w      .text	00000000 DMA1_Channel6_IRQHandler
000048a2 g     F .text	0000006e .hidden __clzsi2
00005234 g     F .text	00000040 __sfputs_r
00005a50 g     F .text	00000018 memchr
00001410 g     F .text	0000008e USART_Init
00005090 g     F .text	000000a8 _free_r
00000b86  w      .text	00000000 TIM3_IRQHandler
00000130 g     F .text	0000000c .hidden __riscv_save_3
00000b86  w      .text	00000000 TIM1_TRG_COM_IRQHandler
200001a0 g     O .data	00000004 CFGHR_tmpC
00000b86  w      .text	00000000 DMA1_Channel1_IRQHandler
00000000 g       .init	00000000 _start
2000010c g     O .data	00000010 AHBPrescTable
00005abc g     F .text	0000000c _lseek
00000378 g     F .text	00000076 soft_AiP650E_Write
000044f8 g     F .text	000000c6 .hidden __floatsisf
00000b86  w      .text	00000000 DMA1_Channel8_IRQHandler
00001274 g     F .text	00000004 GPIO_ResetBits
000059aa g     F .text	00000028 _close_r
20000000 g       .dalign	00000000 _data_vma
00004af2 g     F .text	000000fc __swsetup_r
00000b86  w      .text	00000000 PIOC_IRQHandler
0000238c g     F .text	000005b4 .hidden __divdf3
00004ea0 g     F .text	0000009e __sfp
00002a58 g     F .text	000004b8 .hidden __muldf3
00000108 g     F .text	00000028 .hidden __riscv_save_10
000058d2 g     F .text	0000002c __sread
00005a68 g     F .text	00000002 __malloc_lock
0000014a g     F .text	00000016 .hidden __riscv_restore_4
00000140 g     F .text	00000020 .hidden __riscv_restore_8
20000000 g     O .data	0000000a Dig_Number
00004d1e g     F .text	00000066 _fflush_r
00000116 g     F .text	0000001a .hidden __riscv_save_6
00005ed0 g     O .text	00000020 __sf_fake_stdin
00000160 g     F .text	000000a8 memset
000004b8 g     F .text	0000002e AiP_Temp2Array
00000140 g     F .text	00000020 .hidden __riscv_restore_9
0000014a g     F .text	00000016 .hidden __riscv_restore_7
000009cc g     F .text	0000013e main
00003dfa g     F .text	0000008c .hidden __ltsf2
00005976 g     F .text	00000006 __sclose
00001c4a g     F .text	00000004 matherr
00004738 g     F .text	0000016a .hidden __truncdfsf2
00005138 g     F .text	000000d4 _malloc_r
00000b86  w      .text	00000000 DMA1_Channel5_IRQHandler
00001526 g     F .text	00000036 Delay_Ms
00003e86 g     F .text	00000294 .hidden __mulsf3
2000019c g     O .data	00000004 CFGHR_tmpB
00000b0a g     F .text	00000042 SystemInit
00002940 g     F .text	0000006a .hidden __nedf2
00004918 g     F .text	00000040 iprintf
20000190 g     O .data	00000004 Dig_Letter
00005db0 g     O .text	00000100 .hidden __clz_tab
000007de g     F .text	00000148 calculatePWM
00000000 g       .init	00000000 _sinit
00003d74 g     F .text	00000086 .hidden __gesf2
0000597c g     F .text	0000002e _write_r
00000b86  w      .text	00000000 DMA1_Channel3_IRQHandler
000054fa g     F .text	0000010c _printf_common
200001ac g     O .data	00000004 _impure_ptr
00000706 g     F .text	00000032 Get_ADC_Val
00000684 g     F .text	00000082 ADC_Function_Init
00000b86  w      .text	00000000 TIM1_UP_IRQHandler
00004bee g     F .text	00000130 __sflush_r
00001872 g     F .text	000003d8 __ieee754_log
000002f2 g     F .text	00000086 AiP650E_waitACK
00000b86  w      .text	00000000 WWDG_IRQHandler
2000000c g     O .data	00000100 buf
00000b86  w      .text	00000000 Ecall_U_Mode_Handler
20005000 g       .stack	00000000 _eusrstack
00000130 g     F .text	0000000c .hidden __riscv_save_2
00000b86  w      .text	00000000 SW_Handler
000005d8 g     F .text	000000ac TIM1_PWMOut_Init
00001c4e g     F .text	0000000e nan
0000053a g     F .text	00000054 AiP650E_Display_Number
00000c0e g     F .text	00000026 ADC_DeInit
0000058e g     F .text	0000001e AiP650E_Fresh
00000b86  w      .text	00000000 TIM1_BRK_IRQHandler
00004fa8 g     F .text	00000058 __swhatbuf_r
00000c34 g     F .text	00000056 ADC_Init
000014b4 g     F .text	00000008 USART_SendData
00000b86  w      .text	00000000 OPA_IRQHandler
00000116 g     F .text	0000001a .hidden __riscv_save_5
000015b0 g     F .text	0000003a _write
200001bc g       .data	00000000 _edata
200001cc g       .bss	00000000 _end
000012f2 g     F .text	00000056 TIM_TimeBaseInit
00000926 g     F .text	000000a6 Flash_Write_Fast
00005f4c g       .dlalign	00000000 _data_lma
00000b86  w      .text	00000000 USART2_IRQHandler
000058fe g     F .text	00000048 __swrite
00005274 g     F .text	00000286 _vfiprintf_r
00004f3e g     F .text	0000006a _fwalk_reent
00000b4c g     F .text	0000003a SystemCoreClockUpdate
000045be g     F .text	000000ce .hidden __floatunsisf
00000fd6 g     F .text	000000f8 FLASH_ROM_WRITE
00000b86  w      .text	00000000 DMA1_Channel2_IRQHandler
00005ef0 g     O .text	00000020 __sf_fake_stdout
0000013c g     F .text	00000024 .hidden __riscv_restore_12
00005ac8 g     F .text	0000000c _read
0000364e g     F .text	0000003c .hidden __unorddf2
00000b88  w      .text	00000000 handle_reset
000044a2 g     F .text	00000056 .hidden __fixunssfsi
00000b86  w      .text	00000000 FLASH_IRQHandler
00000130 g     F .text	0000000c .hidden __riscv_save_0
00000b86  w      .text	00000000 USBFSWakeUp_IRQHandler
00000b86  w      .text	00000000 USART1_IRQHandler
00005000 g     F .text	00000090 __smakebuf_r
00005606 g     F .text	000002a2 _printf_i
00000208 g     F .text	00000060 soft_AiP650E_Init
000004e6 g     F .text	0000003c AiP_PWM2Array
000029aa g     F .text	000000ae .hidden __gedf2
200001c4 g     O .bss	00000004 __malloc_sbrk_start
000012d4 g     F .text	0000001e RCC_APB2PeriphResetCmd
00000b86  w      .text	00000000 I2C1_ER_IRQHandler
200001c0 g     O .bss	00000004 __malloc_free_list
000002a4 g     F .text	0000004e AiP650E_STOP
00000154 g     F .text	0000000c .hidden __riscv_restore_1
00000e54 g     F .text	00000182 FLASH_ROM_ERASE
00002f10 g     F .text	0000073e .hidden __subdf3
00005274 g     F .text	00000286 _vfprintf_r
0000125c g     F .text	0000000a GPIO_ReadInputDataBit
00003758 g     F .text	0000036a .hidden __addsf3
00005a98 g     F .text	0000000c _close



Disassembly of section .init:

00000000 <_sinit>:
   0:	3890006f          	j	b88 <handle_reset>

Disassembly of section .vector:

00000004 <_vector_base>:
	...
   c:	05c6                	slli	a1,a1,0x11
   e:	0000                	unimp
  10:	05c8                	addi	a0,sp,708
  12:	0000                	unimp
  14:	0000                	unimp
  16:	0000                	unimp
  18:	0b86                	slli	s7,s7,0x1
	...
  22:	0000                	unimp
  24:	0b86                	slli	s7,s7,0x1
  26:	0000                	unimp
  28:	0b86                	slli	s7,s7,0x1
	...
  32:	0000                	unimp
  34:	0b86                	slli	s7,s7,0x1
  36:	0000                	unimp
  38:	0000                	unimp
  3a:	0000                	unimp
  3c:	0b86                	slli	s7,s7,0x1
  3e:	0000                	unimp
  40:	0000                	unimp
  42:	0000                	unimp
  44:	0b86                	slli	s7,s7,0x1
  46:	0000                	unimp
  48:	0b86                	slli	s7,s7,0x1
  4a:	0000                	unimp
  4c:	0b86                	slli	s7,s7,0x1
  4e:	0000                	unimp
  50:	0000                	unimp
  52:	0000                	unimp
  54:	0b86                	slli	s7,s7,0x1
  56:	0000                	unimp
  58:	0b86                	slli	s7,s7,0x1
  5a:	0000                	unimp
  5c:	0b86                	slli	s7,s7,0x1
  5e:	0000                	unimp
  60:	0b86                	slli	s7,s7,0x1
  62:	0000                	unimp
  64:	0b86                	slli	s7,s7,0x1
  66:	0000                	unimp
  68:	0b86                	slli	s7,s7,0x1
  6a:	0000                	unimp
  6c:	0b86                	slli	s7,s7,0x1
  6e:	0000                	unimp
  70:	0b86                	slli	s7,s7,0x1
  72:	0000                	unimp
  74:	0b86                	slli	s7,s7,0x1
  76:	0000                	unimp
  78:	0b86                	slli	s7,s7,0x1
  7a:	0000                	unimp
  7c:	0b86                	slli	s7,s7,0x1
  7e:	0000                	unimp
  80:	0b86                	slli	s7,s7,0x1
  82:	0000                	unimp
  84:	0b86                	slli	s7,s7,0x1
  86:	0000                	unimp
  88:	0b86                	slli	s7,s7,0x1
  8a:	0000                	unimp
  8c:	0b86                	slli	s7,s7,0x1
  8e:	0000                	unimp
  90:	0b86                	slli	s7,s7,0x1
  92:	0000                	unimp
  94:	0b86                	slli	s7,s7,0x1
  96:	0000                	unimp
  98:	0b86                	slli	s7,s7,0x1
  9a:	0000                	unimp
  9c:	0b86                	slli	s7,s7,0x1
  9e:	0000                	unimp
  a0:	0b86                	slli	s7,s7,0x1
  a2:	0000                	unimp
  a4:	0b86                	slli	s7,s7,0x1
  a6:	0000                	unimp
  a8:	0b86                	slli	s7,s7,0x1
  aa:	0000                	unimp
  ac:	0b86                	slli	s7,s7,0x1
  ae:	0000                	unimp
  b0:	0b86                	slli	s7,s7,0x1
  b2:	0000                	unimp
  b4:	0b86                	slli	s7,s7,0x1
  b6:	0000                	unimp
  b8:	0b86                	slli	s7,s7,0x1
  ba:	0000                	unimp
  bc:	0b86                	slli	s7,s7,0x1
  be:	0000                	unimp
  c0:	0b86                	slli	s7,s7,0x1
  c2:	0000                	unimp
  c4:	0b86                	slli	s7,s7,0x1
  c6:	0000                	unimp
  c8:	0b86                	slli	s7,s7,0x1
  ca:	0000                	unimp
  cc:	0b86                	slli	s7,s7,0x1
  ce:	0000                	unimp
  d0:	0b86                	slli	s7,s7,0x1
  d2:	0000                	unimp
  d4:	0b86                	slli	s7,s7,0x1
  d6:	0000                	unimp
  d8:	0b86                	slli	s7,s7,0x1
  da:	0000                	unimp
  dc:	0b86                	slli	s7,s7,0x1
	...

Disassembly of section .text:

00000100 <__riscv_save_12>:
     100:	7139                	addi	sp,sp,-64
     102:	4301                	li	t1,0
     104:	c66e                	sw	s11,12(sp)
     106:	a019                	j	10c <__riscv_save_10+0x4>

00000108 <__riscv_save_10>:
     108:	7139                	addi	sp,sp,-64
     10a:	5341                	li	t1,-16
     10c:	c86a                	sw	s10,16(sp)
     10e:	ca66                	sw	s9,20(sp)
     110:	cc62                	sw	s8,24(sp)
     112:	ce5e                	sw	s7,28(sp)
     114:	a019                	j	11a <__riscv_save_4+0x4>

00000116 <__riscv_save_4>:
     116:	7139                	addi	sp,sp,-64
     118:	5301                	li	t1,-32
     11a:	d05a                	sw	s6,32(sp)
     11c:	d256                	sw	s5,36(sp)
     11e:	d452                	sw	s4,40(sp)
     120:	d64e                	sw	s3,44(sp)
     122:	d84a                	sw	s2,48(sp)
     124:	da26                	sw	s1,52(sp)
     126:	dc22                	sw	s0,56(sp)
     128:	de06                	sw	ra,60(sp)
     12a:	40610133          	sub	sp,sp,t1
     12e:	8282                	jr	t0

00000130 <__riscv_save_0>:
     130:	1141                	addi	sp,sp,-16
     132:	c04a                	sw	s2,0(sp)
     134:	c226                	sw	s1,4(sp)
     136:	c422                	sw	s0,8(sp)
     138:	c606                	sw	ra,12(sp)
     13a:	8282                	jr	t0

0000013c <__riscv_restore_12>:
     13c:	4db2                	lw	s11,12(sp)
     13e:	0141                	addi	sp,sp,16

00000140 <__riscv_restore_10>:
     140:	4d02                	lw	s10,0(sp)
     142:	4c92                	lw	s9,4(sp)
     144:	4c22                	lw	s8,8(sp)
     146:	4bb2                	lw	s7,12(sp)
     148:	0141                	addi	sp,sp,16

0000014a <__riscv_restore_4>:
     14a:	4b02                	lw	s6,0(sp)
     14c:	4a92                	lw	s5,4(sp)
     14e:	4a22                	lw	s4,8(sp)
     150:	49b2                	lw	s3,12(sp)
     152:	0141                	addi	sp,sp,16

00000154 <__riscv_restore_0>:
     154:	4902                	lw	s2,0(sp)
     156:	4492                	lw	s1,4(sp)
     158:	4422                	lw	s0,8(sp)
     15a:	40b2                	lw	ra,12(sp)
     15c:	0141                	addi	sp,sp,16
     15e:	8082                	ret

00000160 <memset>:
     160:	433d                	li	t1,15
     162:	872a                	mv	a4,a0
     164:	02c37363          	bgeu	t1,a2,18a <memset+0x2a>
     168:	00f77793          	andi	a5,a4,15
     16c:	efbd                	bnez	a5,1ea <memset+0x8a>
     16e:	e5ad                	bnez	a1,1d8 <memset+0x78>
     170:	ff067693          	andi	a3,a2,-16
     174:	8a3d                	andi	a2,a2,15
     176:	96ba                	add	a3,a3,a4
     178:	c30c                	sw	a1,0(a4)
     17a:	c34c                	sw	a1,4(a4)
     17c:	c70c                	sw	a1,8(a4)
     17e:	c74c                	sw	a1,12(a4)
     180:	0741                	addi	a4,a4,16
     182:	fed76be3          	bltu	a4,a3,178 <memset+0x18>
     186:	e211                	bnez	a2,18a <memset+0x2a>
     188:	8082                	ret
     18a:	40c306b3          	sub	a3,t1,a2
     18e:	068a                	slli	a3,a3,0x2
     190:	00000297          	auipc	t0,0x0
     194:	9696                	add	a3,a3,t0
     196:	00a68067          	jr	10(a3)
     19a:	00b70723          	sb	a1,14(a4)
     19e:	00b706a3          	sb	a1,13(a4)
     1a2:	00b70623          	sb	a1,12(a4)
     1a6:	00b705a3          	sb	a1,11(a4)
     1aa:	00b70523          	sb	a1,10(a4)
     1ae:	00b704a3          	sb	a1,9(a4)
     1b2:	00b70423          	sb	a1,8(a4)
     1b6:	00b703a3          	sb	a1,7(a4)
     1ba:	00b70323          	sb	a1,6(a4)
     1be:	00b702a3          	sb	a1,5(a4)
     1c2:	00b70223          	sb	a1,4(a4)
     1c6:	00b701a3          	sb	a1,3(a4)
     1ca:	00b70123          	sb	a1,2(a4)
     1ce:	00b700a3          	sb	a1,1(a4)
     1d2:	00b70023          	sb	a1,0(a4)
     1d6:	8082                	ret
     1d8:	0ff5f593          	andi	a1,a1,255
     1dc:	00859693          	slli	a3,a1,0x8
     1e0:	8dd5                	or	a1,a1,a3
     1e2:	01059693          	slli	a3,a1,0x10
     1e6:	8dd5                	or	a1,a1,a3
     1e8:	b761                	j	170 <memset+0x10>
     1ea:	00279693          	slli	a3,a5,0x2
     1ee:	00000297          	auipc	t0,0x0
     1f2:	9696                	add	a3,a3,t0
     1f4:	8286                	mv	t0,ra
     1f6:	fa8680e7          	jalr	-88(a3)
     1fa:	8096                	mv	ra,t0
     1fc:	17c1                	addi	a5,a5,-16
     1fe:	8f1d                	sub	a4,a4,a5
     200:	963e                	add	a2,a2,a5
     202:	f8c374e3          	bgeu	t1,a2,18a <memset+0x2a>
     206:	b7a5                	j	16e <memset+0xe>

00000208 <soft_AiP650E_Init>:
     208:	f0fff2ef          	jal	t0,116 <__riscv_save_4>
     20c:	1141                	addi	sp,sp,-16
     20e:	4585                	li	a1,1
     210:	4511                	li	a0,4
     212:	40011437          	lui	s0,0x40011
     216:	c202                	sw	zero,4(sp)
     218:	c402                	sw	zero,8(sp)
     21a:	c602                	sw	zero,12(sp)
     21c:	09a010ef          	jal	ra,12b6 <RCC_APB2PeriphClockCmd>
     220:	40000793          	li	a5,1024
     224:	49c1                	li	s3,16
     226:	4905                	li	s2,1
     228:	004c                	addi	a1,sp,4
     22a:	80040513          	addi	a0,s0,-2048 # 40010800 <_eusrstack+0x2000b800>
     22e:	c23e                	sw	a5,4(sp)
     230:	c64e                	sw	s3,12(sp)
     232:	c44a                	sw	s2,8(sp)
     234:	6485                	lui	s1,0x1
     236:	699000ef          	jal	ra,10ce <GPIO_Init>
     23a:	80048493          	addi	s1,s1,-2048 # 800 <__stack_size>
     23e:	004c                	addi	a1,sp,4
     240:	80040513          	addi	a0,s0,-2048
     244:	c226                	sw	s1,4(sp)
     246:	c64e                	sw	s3,12(sp)
     248:	c44a                	sw	s2,8(sp)
     24a:	685000ef          	jal	ra,10ce <GPIO_Init>
     24e:	80040513          	addi	a0,s0,-2048
     252:	40000593          	li	a1,1024
     256:	010010ef          	jal	ra,1266 <GPIO_SetBits>
     25a:	85a6                	mv	a1,s1
     25c:	80040513          	addi	a0,s0,-2048
     260:	006010ef          	jal	ra,1266 <GPIO_SetBits>
     264:	0141                	addi	sp,sp,16
     266:	b5d5                	j	14a <__riscv_restore_4>

00000268 <AiP650E_START>:
     268:	ec9ff2ef          	jal	t0,130 <__riscv_save_0>
     26c:	40011437          	lui	s0,0x40011
     270:	80040513          	addi	a0,s0,-2048 # 40010800 <_eusrstack+0x2000b800>
     274:	40000593          	li	a1,1024
     278:	7ef000ef          	jal	ra,1266 <GPIO_SetBits>
     27c:	6485                	lui	s1,0x1
     27e:	80048593          	addi	a1,s1,-2048 # 800 <__stack_size>
     282:	80040513          	addi	a0,s0,-2048
     286:	7e1000ef          	jal	ra,1266 <GPIO_SetBits>
     28a:	4515                	li	a0,5
     28c:	264010ef          	jal	ra,14f0 <Delay_Us>
     290:	80048593          	addi	a1,s1,-2048
     294:	80040513          	addi	a0,s0,-2048
     298:	7dd000ef          	jal	ra,1274 <GPIO_ResetBits>
     29c:	4515                	li	a0,5
     29e:	252010ef          	jal	ra,14f0 <Delay_Us>
     2a2:	bd4d                	j	154 <__riscv_restore_0>

000002a4 <AiP650E_STOP>:
     2a4:	e8dff2ef          	jal	t0,130 <__riscv_save_0>
     2a8:	4515                	li	a0,5
     2aa:	246010ef          	jal	ra,14f0 <Delay_Us>
     2ae:	4515                	li	a0,5
     2b0:	40011437          	lui	s0,0x40011
     2b4:	23c010ef          	jal	ra,14f0 <Delay_Us>
     2b8:	40000593          	li	a1,1024
     2bc:	80040513          	addi	a0,s0,-2048 # 40010800 <_eusrstack+0x2000b800>
     2c0:	7a7000ef          	jal	ra,1266 <GPIO_SetBits>
     2c4:	4515                	li	a0,5
     2c6:	22a010ef          	jal	ra,14f0 <Delay_Us>
     2ca:	6485                	lui	s1,0x1
     2cc:	80048593          	addi	a1,s1,-2048 # 800 <__stack_size>
     2d0:	80040513          	addi	a0,s0,-2048
     2d4:	7a1000ef          	jal	ra,1274 <GPIO_ResetBits>
     2d8:	4515                	li	a0,5
     2da:	216010ef          	jal	ra,14f0 <Delay_Us>
     2de:	80048593          	addi	a1,s1,-2048
     2e2:	80040513          	addi	a0,s0,-2048
     2e6:	781000ef          	jal	ra,1266 <GPIO_SetBits>
     2ea:	4515                	li	a0,5
     2ec:	204010ef          	jal	ra,14f0 <Delay_Us>
     2f0:	b595                	j	154 <__riscv_restore_0>

000002f2 <AiP650E_waitACK>:
     2f2:	e3fff2ef          	jal	t0,130 <__riscv_save_0>
     2f6:	1141                	addi	sp,sp,-16
     2f8:	40011437          	lui	s0,0x40011
     2fc:	6485                	lui	s1,0x1
     2fe:	4791                	li	a5,4
     300:	80048493          	addi	s1,s1,-2048 # 800 <__stack_size>
     304:	4905                	li	s2,1
     306:	004c                	addi	a1,sp,4
     308:	80040513          	addi	a0,s0,-2048 # 40010800 <_eusrstack+0x2000b800>
     30c:	c63e                	sw	a5,12(sp)
     30e:	c226                	sw	s1,4(sp)
     310:	c44a                	sw	s2,8(sp)
     312:	5bd000ef          	jal	ra,10ce <GPIO_Init>
     316:	40000593          	li	a1,1024
     31a:	80040513          	addi	a0,s0,-2048
     31e:	757000ef          	jal	ra,1274 <GPIO_ResetBits>
     322:	4515                	li	a0,5
     324:	1cc010ef          	jal	ra,14f0 <Delay_Us>
     328:	40000593          	li	a1,1024
     32c:	80040513          	addi	a0,s0,-2048
     330:	737000ef          	jal	ra,1266 <GPIO_SetBits>
     334:	4515                	li	a0,5
     336:	1ba010ef          	jal	ra,14f0 <Delay_Us>
     33a:	85a6                	mv	a1,s1
     33c:	80040513          	addi	a0,s0,-2048
     340:	71d000ef          	jal	ra,125c <GPIO_ReadInputDataBit>
     344:	4515                	li	a0,5
     346:	1aa010ef          	jal	ra,14f0 <Delay_Us>
     34a:	80040513          	addi	a0,s0,-2048
     34e:	40000593          	li	a1,1024
     352:	723000ef          	jal	ra,1274 <GPIO_ResetBits>
     356:	47c1                	li	a5,16
     358:	004c                	addi	a1,sp,4
     35a:	80040513          	addi	a0,s0,-2048
     35e:	c63e                	sw	a5,12(sp)
     360:	c226                	sw	s1,4(sp)
     362:	c44a                	sw	s2,8(sp)
     364:	56b000ef          	jal	ra,10ce <GPIO_Init>
     368:	80040513          	addi	a0,s0,-2048
     36c:	85a6                	mv	a1,s1
     36e:	707000ef          	jal	ra,1274 <GPIO_ResetBits>
     372:	4501                	li	a0,0
     374:	0141                	addi	sp,sp,16
     376:	bbf9                	j	154 <__riscv_restore_0>

00000378 <soft_AiP650E_Write>:
     378:	d9fff2ef          	jal	t0,116 <__riscv_save_4>
     37c:	40011a37          	lui	s4,0x40011
     380:	6985                	lui	s3,0x1
     382:	84aa                	mv	s1,a0
     384:	4421                	li	s0,8
     386:	800a0913          	addi	s2,s4,-2048 # 40010800 <_eusrstack+0x2000b800>
     38a:	80098993          	addi	s3,s3,-2048 # 800 <__stack_size>
     38e:	40000593          	li	a1,1024
     392:	854a                	mv	a0,s2
     394:	6e1000ef          	jal	ra,1274 <GPIO_ResetBits>
     398:	4515                	li	a0,5
     39a:	156010ef          	jal	ra,14f0 <Delay_Us>
     39e:	01849793          	slli	a5,s1,0x18
     3a2:	87e1                	srai	a5,a5,0x18
     3a4:	85ce                	mv	a1,s3
     3a6:	854a                	mv	a0,s2
     3a8:	0407d063          	bgez	a5,3e8 <soft_AiP650E_Write+0x70>
     3ac:	6bb000ef          	jal	ra,1266 <GPIO_SetBits>
     3b0:	4515                	li	a0,5
     3b2:	13e010ef          	jal	ra,14f0 <Delay_Us>
     3b6:	40000593          	li	a1,1024
     3ba:	854a                	mv	a0,s2
     3bc:	6ab000ef          	jal	ra,1266 <GPIO_SetBits>
     3c0:	4515                	li	a0,5
     3c2:	12e010ef          	jal	ra,14f0 <Delay_Us>
     3c6:	147d                	addi	s0,s0,-1
     3c8:	0486                	slli	s1,s1,0x1
     3ca:	4515                	li	a0,5
     3cc:	0ff47413          	andi	s0,s0,255
     3d0:	0ff4f493          	andi	s1,s1,255
     3d4:	11c010ef          	jal	ra,14f0 <Delay_Us>
     3d8:	f85d                	bnez	s0,38e <soft_AiP650E_Write+0x16>
     3da:	40000593          	li	a1,1024
     3de:	800a0513          	addi	a0,s4,-2048
     3e2:	693000ef          	jal	ra,1274 <GPIO_ResetBits>
     3e6:	b395                	j	14a <__riscv_restore_4>
     3e8:	68d000ef          	jal	ra,1274 <GPIO_ResetBits>
     3ec:	b7d1                	j	3b0 <soft_AiP650E_Write+0x38>

000003ee <AiP_Display>:
     3ee:	d43ff2ef          	jal	t0,130 <__riscv_save_0>
     3f2:	3d9d                	jal	268 <AiP650E_START>
     3f4:	04800513          	li	a0,72
     3f8:	3741                	jal	378 <soft_AiP650E_Write>
     3fa:	3de5                	jal	2f2 <AiP650E_waitACK>
     3fc:	07100513          	li	a0,113
     400:	3fa5                	jal	378 <soft_AiP650E_Write>
     402:	3dc5                	jal	2f2 <AiP650E_waitACK>
     404:	3545                	jal	2a4 <AiP650E_STOP>
     406:	b3b9                	j	154 <__riscv_restore_0>

00000408 <soft_AiP650E_Read>:
     408:	d0fff2ef          	jal	t0,116 <__riscv_save_4>
     40c:	1141                	addi	sp,sp,-16
     40e:	4791                	li	a5,4
     410:	400114b7          	lui	s1,0x40011
     414:	6905                	lui	s2,0x1
     416:	c63e                	sw	a5,12(sp)
     418:	80048513          	addi	a0,s1,-2048 # 40010800 <_eusrstack+0x2000b800>
     41c:	4785                	li	a5,1
     41e:	80090913          	addi	s2,s2,-2048 # 800 <__stack_size>
     422:	004c                	addi	a1,sp,4
     424:	c24a                	sw	s2,4(sp)
     426:	c43e                	sw	a5,8(sp)
     428:	49a1                	li	s3,8
     42a:	4a5000ef          	jal	ra,10ce <GPIO_Init>
     42e:	4401                	li	s0,0
     430:	80048493          	addi	s1,s1,-2048
     434:	40000593          	li	a1,1024
     438:	8526                	mv	a0,s1
     43a:	63b000ef          	jal	ra,1274 <GPIO_ResetBits>
     43e:	4515                	li	a0,5
     440:	0b0010ef          	jal	ra,14f0 <Delay_Us>
     444:	4515                	li	a0,5
     446:	0aa010ef          	jal	ra,14f0 <Delay_Us>
     44a:	40000593          	li	a1,1024
     44e:	8526                	mv	a0,s1
     450:	617000ef          	jal	ra,1266 <GPIO_SetBits>
     454:	4515                	li	a0,5
     456:	09a010ef          	jal	ra,14f0 <Delay_Us>
     45a:	0406                	slli	s0,s0,0x1
     45c:	85ca                	mv	a1,s2
     45e:	8526                	mv	a0,s1
     460:	0ff47413          	andi	s0,s0,255
     464:	5f9000ef          	jal	ra,125c <GPIO_ReadInputDataBit>
     468:	c119                	beqz	a0,46e <soft_AiP650E_Read+0x66>
     46a:	00146413          	ori	s0,s0,1
     46e:	19fd                	addi	s3,s3,-1
     470:	4515                	li	a0,5
     472:	0ff9f993          	andi	s3,s3,255
     476:	07a010ef          	jal	ra,14f0 <Delay_Us>
     47a:	fa099de3          	bnez	s3,434 <soft_AiP650E_Read+0x2c>
     47e:	40011937          	lui	s2,0x40011
     482:	80090513          	addi	a0,s2,-2048 # 40010800 <_eusrstack+0x2000b800>
     486:	40000593          	li	a1,1024
     48a:	5eb000ef          	jal	ra,1274 <GPIO_ResetBits>
     48e:	47c1                	li	a5,16
     490:	6485                	lui	s1,0x1
     492:	80048493          	addi	s1,s1,-2048 # 800 <__stack_size>
     496:	c63e                	sw	a5,12(sp)
     498:	004c                	addi	a1,sp,4
     49a:	4785                	li	a5,1
     49c:	80090513          	addi	a0,s2,-2048
     4a0:	c43e                	sw	a5,8(sp)
     4a2:	c226                	sw	s1,4(sp)
     4a4:	42b000ef          	jal	ra,10ce <GPIO_Init>
     4a8:	80090513          	addi	a0,s2,-2048
     4ac:	85a6                	mv	a1,s1
     4ae:	5b9000ef          	jal	ra,1266 <GPIO_SetBits>
     4b2:	8522                	mv	a0,s0
     4b4:	0141                	addi	sp,sp,16
     4b6:	b951                	j	14a <__riscv_restore_4>

000004b8 <AiP_Temp2Array>:
     4b8:	4729                	li	a4,10
     4ba:	02e5f6b3          	remu	a3,a1,a4
     4be:	200007b7          	lui	a5,0x20000
     4c2:	1917c783          	lbu	a5,401(a5) # 20000191 <Dig_Letter+0x1>
     4c6:	a11c                	sb	a5,0(a0)
     4c8:	200007b7          	lui	a5,0x20000
     4cc:	00078793          	mv	a5,a5
     4d0:	02e5d5b3          	divu	a1,a1,a4
     4d4:	96be                	add	a3,a3,a5
     4d6:	2294                	lbu	a3,0(a3)
     4d8:	b114                	sb	a3,1(a0)
     4da:	02e5f5b3          	remu	a1,a1,a4
     4de:	97ae                	add	a5,a5,a1
     4e0:	239c                	lbu	a5,0(a5)
     4e2:	a13c                	sb	a5,2(a0)
     4e4:	8082                	ret

000004e6 <AiP_PWM2Array>:
     4e6:	47b1                	li	a5,12
     4e8:	02f5c5b3          	div	a1,a1,a5
     4ec:	46a9                	li	a3,10
     4ee:	200007b7          	lui	a5,0x20000
     4f2:	00078793          	mv	a5,a5
     4f6:	02d5f733          	remu	a4,a1,a3
     4fa:	973e                	add	a4,a4,a5
     4fc:	2318                	lbu	a4,0(a4)
     4fe:	a118                	sb	a4,0(a0)
     500:	02d5d733          	divu	a4,a1,a3
     504:	02d77733          	remu	a4,a4,a3
     508:	973e                	add	a4,a4,a5
     50a:	2318                	lbu	a4,0(a4)
     50c:	b118                	sb	a4,1(a0)
     50e:	06400713          	li	a4,100
     512:	02e5d5b3          	divu	a1,a1,a4
     516:	02d5f5b3          	remu	a1,a1,a3
     51a:	95be                	add	a1,a1,a5
     51c:	219c                	lbu	a5,0(a1)
     51e:	a13c                	sb	a5,2(a0)
     520:	8082                	ret

00000522 <AiP_Mode2Array>:
     522:	200007b7          	lui	a5,0x20000
     526:	00078793          	mv	a5,a5
     52a:	95be                	add	a1,a1,a5
     52c:	219c                	lbu	a5,0(a1)
     52e:	a11c                	sb	a5,0(a0)
     530:	219c                	lbu	a5,0(a1)
     532:	b11c                	sb	a5,1(a0)
     534:	219c                	lbu	a5,0(a1)
     536:	a13c                	sb	a5,2(a0)
     538:	8082                	ret

0000053a <AiP650E_Display_Number>:
     53a:	bf7ff2ef          	jal	t0,130 <__riscv_save_0>
     53e:	842a                	mv	s0,a0
     540:	3325                	jal	268 <AiP650E_START>
     542:	06800513          	li	a0,104
     546:	3d0d                	jal	378 <soft_AiP650E_Write>
     548:	336d                	jal	2f2 <AiP650E_waitACK>
     54a:	0ff00513          	li	a0,255
     54e:	352d                	jal	378 <soft_AiP650E_Write>
     550:	334d                	jal	2f2 <AiP650E_waitACK>
     552:	3b89                	jal	2a4 <AiP650E_STOP>
     554:	3b11                	jal	268 <AiP650E_START>
     556:	06a00513          	li	a0,106
     55a:	3d39                	jal	378 <soft_AiP650E_Write>
     55c:	3b59                	jal	2f2 <AiP650E_waitACK>
     55e:	2028                	lbu	a0,2(s0)
     560:	3d21                	jal	378 <soft_AiP650E_Write>
     562:	3b41                	jal	2f2 <AiP650E_waitACK>
     564:	3381                	jal	2a4 <AiP650E_STOP>
     566:	3309                	jal	268 <AiP650E_START>
     568:	06c00513          	li	a0,108
     56c:	3531                	jal	378 <soft_AiP650E_Write>
     56e:	3351                	jal	2f2 <AiP650E_waitACK>
     570:	3008                	lbu	a0,1(s0)
     572:	3519                	jal	378 <soft_AiP650E_Write>
     574:	3bbd                	jal	2f2 <AiP650E_waitACK>
     576:	333d                	jal	2a4 <AiP650E_STOP>
     578:	39c5                	jal	268 <AiP650E_START>
     57a:	06e00513          	li	a0,110
     57e:	3bed                	jal	378 <soft_AiP650E_Write>
     580:	3b8d                	jal	2f2 <AiP650E_waitACK>
     582:	2008                	lbu	a0,0(s0)
     584:	3bd5                	jal	378 <soft_AiP650E_Write>
     586:	33b5                	jal	2f2 <AiP650E_waitACK>
     588:	3b31                	jal	2a4 <AiP650E_STOP>
     58a:	3595                	jal	3ee <AiP_Display>
     58c:	b6e1                	j	154 <__riscv_restore_0>

0000058e <AiP650E_Fresh>:
     58e:	ba3ff2ef          	jal	t0,130 <__riscv_save_0>
     592:	8281d703          	lhu	a4,-2008(gp) # 200001b8 <_global_impure_ptr+0x8>
     596:	82818793          	addi	a5,gp,-2008 # 200001b8 <_global_impure_ptr+0x8>
     59a:	23bc                	lbu	a5,2(a5)
     59c:	1141                	addi	sp,sp,-16
     59e:	0068                	addi	a0,sp,12
     5a0:	8678                	sh	a4,12(sp)
     5a2:	875c                	sb	a5,14(sp)
     5a4:	3f59                	jal	53a <AiP650E_Display_Number>
     5a6:	35a1                	jal	3ee <AiP_Display>
     5a8:	0141                	addi	sp,sp,16
     5aa:	b66d                	j	154 <__riscv_restore_0>

000005ac <AiP650E_Return_KEY>:
     5ac:	b85ff2ef          	jal	t0,130 <__riscv_save_0>
     5b0:	3965                	jal	268 <AiP650E_START>
     5b2:	04900513          	li	a0,73
     5b6:	33c9                	jal	378 <soft_AiP650E_Write>
     5b8:	3b2d                	jal	2f2 <AiP650E_waitACK>
     5ba:	35b9                	jal	408 <soft_AiP650E_Read>
     5bc:	842a                	mv	s0,a0
     5be:	3b15                	jal	2f2 <AiP650E_waitACK>
     5c0:	31d5                	jal	2a4 <AiP650E_STOP>
     5c2:	8522                	mv	a0,s0
     5c4:	be41                	j	154 <__riscv_restore_0>

000005c6 <NMI_Handler>:
     5c6:	a001                	j	5c6 <NMI_Handler>

000005c8 <HardFault_Handler>:
     5c8:	beef07b7          	lui	a5,0xbeef0
     5cc:	e000e737          	lui	a4,0xe000e
     5d0:	08078793          	addi	a5,a5,128 # beef0080 <_eusrstack+0x9eeeb080>
     5d4:	c73c                	sw	a5,72(a4)
     5d6:	a001                	j	5d6 <HardFault_Handler+0xe>

000005d8 <TIM1_PWMOut_Init>:
     5d8:	b59ff2ef          	jal	t0,130 <__riscv_save_0>
     5dc:	84aa                	mv	s1,a0
     5de:	6505                	lui	a0,0x1
     5e0:	7139                	addi	sp,sp,-64
     5e2:	842e                	mv	s0,a1
     5e4:	80850513          	addi	a0,a0,-2040 # 808 <__stack_size+0x8>
     5e8:	4585                	li	a1,1
     5ea:	c632                	sw	a2,12(sp)
     5ec:	d202                	sw	zero,36(sp)
     5ee:	d402                	sw	zero,40(sp)
     5f0:	d602                	sw	zero,44(sp)
     5f2:	d802                	sw	zero,48(sp)
     5f4:	da02                	sw	zero,52(sp)
     5f6:	dc02                	sw	zero,56(sp)
     5f8:	de02                	sw	zero,60(sp)
     5fa:	cc02                	sw	zero,24(sp)
     5fc:	ce02                	sw	zero,28(sp)
     5fe:	02011023          	sh	zero,32(sp)
     602:	4b5000ef          	jal	ra,12b6 <RCC_APB2PeriphClockCmd>
     606:	20000793          	li	a5,512
     60a:	d23e                	sw	a5,36(sp)
     60c:	40011537          	lui	a0,0x40011
     610:	47e1                	li	a5,24
     612:	d63e                	sw	a5,44(sp)
     614:	104c                	addi	a1,sp,36
     616:	4785                	li	a5,1
     618:	c0050513          	addi	a0,a0,-1024 # 40010c00 <_eusrstack+0x2000bc00>
     61c:	d43e                	sw	a5,40(sp)
     61e:	2b1000ef          	jal	ra,10ce <GPIO_Init>
     622:	84e0                	sh	s0,24(sp)
     624:	40013437          	lui	s0,0x40013
     628:	082c                	addi	a1,sp,24
     62a:	c0040513          	addi	a0,s0,-1024 # 40012c00 <_eusrstack+0x2000dc00>
     62e:	86e4                	sh	s1,28(sp)
     630:	00011f23          	sh	zero,30(sp)
     634:	00011d23          	sh	zero,26(sp)
     638:	4bb000ef          	jal	ra,12f2 <TIM_TimeBaseInit>
     63c:	4632                	lw	a2,12(sp)
     63e:	67c1                	lui	a5,0x10
     640:	07078793          	addi	a5,a5,112 # 10070 <_data_lma+0xa124>
     644:	180c                	addi	a1,sp,48
     646:	c0040513          	addi	a0,s0,-1024
     64a:	d83e                	sw	a5,48(sp)
     64c:	02c11b23          	sh	a2,54(sp)
     650:	02011c23          	sh	zero,56(sp)
     654:	4f5000ef          	jal	ra,1348 <TIM_OC1Init>
     658:	c0040513          	addi	a0,s0,-1024
     65c:	4585                	li	a1,1
     65e:	575000ef          	jal	ra,13d2 <TIM_CtrlPWMOutputs>
     662:	c0040513          	addi	a0,s0,-1024
     666:	4581                	li	a1,0
     668:	59b000ef          	jal	ra,1402 <TIM_OC1PreloadConfig>
     66c:	c0040513          	addi	a0,s0,-1024
     670:	4585                	li	a1,1
     672:	577000ef          	jal	ra,13e8 <TIM_ARRPreloadConfig>
     676:	4585                	li	a1,1
     678:	c0040513          	addi	a0,s0,-1024
     67c:	53f000ef          	jal	ra,13ba <TIM_Cmd>
     680:	6121                	addi	sp,sp,64
     682:	bcc9                	j	154 <__riscv_restore_0>

00000684 <ADC_Function_Init>:
     684:	aadff2ef          	jal	t0,130 <__riscv_save_0>
     688:	7179                	addi	sp,sp,-48
     68a:	02000613          	li	a2,32
     68e:	4581                	li	a1,0
     690:	0808                	addi	a0,sp,16
     692:	34f9                	jal	160 <memset>
     694:	4585                	li	a1,1
     696:	4511                	li	a0,4
     698:	c202                	sw	zero,4(sp)
     69a:	c402                	sw	zero,8(sp)
     69c:	c602                	sw	zero,12(sp)
     69e:	419000ef          	jal	ra,12b6 <RCC_APB2PeriphClockCmd>
     6a2:	4585                	li	a1,1
     6a4:	20000513          	li	a0,512
     6a8:	40f000ef          	jal	ra,12b6 <RCC_APB2PeriphClockCmd>
     6ac:	40011537          	lui	a0,0x40011
     6b0:	4789                	li	a5,2
     6b2:	004c                	addi	a1,sp,4
     6b4:	80050513          	addi	a0,a0,-2048 # 40010800 <_eusrstack+0x2000b800>
     6b8:	40012437          	lui	s0,0x40012
     6bc:	c23e                	sw	a5,4(sp)
     6be:	c602                	sw	zero,12(sp)
     6c0:	20f000ef          	jal	ra,10ce <GPIO_Init>
     6c4:	40040513          	addi	a0,s0,1024 # 40012400 <_eusrstack+0x2000d400>
     6c8:	2399                	jal	c0e <ADC_DeInit>
     6ca:	40040513          	addi	a0,s0,1024
     6ce:	02500593          	li	a1,37
     6d2:	6bc000ef          	jal	ra,d8e <ADC_CLKConfig>
     6d6:	000e07b7          	lui	a5,0xe0
     6da:	ce3e                	sw	a5,28(sp)
     6dc:	080c                	addi	a1,sp,16
     6de:	4785                	li	a5,1
     6e0:	40040513          	addi	a0,s0,1024
     6e4:	02f10223          	sb	a5,36(sp)
     6e8:	c802                	sw	zero,16(sp)
     6ea:	ca02                	sw	zero,20(sp)
     6ec:	cc02                	sw	zero,24(sp)
     6ee:	d002                	sw	zero,32(sp)
     6f0:	2391                	jal	c34 <ADC_Init>
     6f2:	40040513          	addi	a0,s0,1024
     6f6:	4585                	li	a1,1
     6f8:	234d                	jal	c9a <ADC_DMACmd>
     6fa:	4585                	li	a1,1
     6fc:	40040513          	addi	a0,s0,1024
     700:	2369                	jal	c8a <ADC_Cmd>
     702:	6145                	addi	sp,sp,48
     704:	bc81                	j	154 <__riscv_restore_0>

00000706 <Get_ADC_Val>:
     706:	a2bff2ef          	jal	t0,130 <__riscv_save_0>
     70a:	40012437          	lui	s0,0x40012
     70e:	85aa                	mv	a1,a0
     710:	469d                	li	a3,7
     712:	4605                	li	a2,1
     714:	40040513          	addi	a0,s0,1024 # 40012400 <_eusrstack+0x2000d400>
     718:	2375                	jal	cc4 <ADC_RegularChannelConfig>
     71a:	4585                	li	a1,1
     71c:	40040513          	addi	a0,s0,1024
     720:	2371                	jal	cac <ADC_SoftwareStartConvCmd>
     722:	40040493          	addi	s1,s0,1024
     726:	4589                	li	a1,2
     728:	8526                	mv	a0,s1
     72a:	2da9                	jal	d84 <ADC_GetFlagStatus>
     72c:	dd6d                	beqz	a0,726 <Get_ADC_Val+0x20>
     72e:	40040513          	addi	a0,s0,1024
     732:	25a9                	jal	d7c <ADC_GetConversionValue>
     734:	a21ff06f          	j	154 <__riscv_restore_0>

00000738 <ADC2TEMP>:
     738:	9f9ff2ef          	jal	t0,130 <__riscv_save_0>
     73c:	842e                	mv	s0,a1
     73e:	681030ef          	jal	ra,45be <__floatunsisf>
     742:	000067b7          	lui	a5,0x6
     746:	ad47a583          	lw	a1,-1324(a5) # 5ad4 <_read+0xc>
     74a:	378030ef          	jal	ra,3ac2 <__divsf3>
     74e:	85a2                	mv	a1,s0
     750:	736030ef          	jal	ra,3e86 <__mulsf3>
     754:	000067b7          	lui	a5,0x6
     758:	85aa                	mv	a1,a0
     75a:	ad87a503          	lw	a0,-1320(a5) # 5ad8 <_read+0x10>
     75e:	364030ef          	jal	ra,3ac2 <__divsf3>
     762:	000067b7          	lui	a5,0x6
     766:	adc7a583          	lw	a1,-1316(a5) # 5adc <_read+0x14>
     76a:	1b1030ef          	jal	ra,411a <__subsf3>
     76e:	000067b7          	lui	a5,0x6
     772:	ae07a583          	lw	a1,-1312(a5) # 5ae0 <_read+0x18>
     776:	34c030ef          	jal	ra,3ac2 <__divsf3>
     77a:	713030ef          	jal	ra,468c <__extendsfdf2>
     77e:	7e3000ef          	jal	ra,1760 <log>
     782:	000067b7          	lui	a5,0x6
     786:	ae87a603          	lw	a2,-1304(a5) # 5ae8 <_read+0x20>
     78a:	aec7a683          	lw	a3,-1300(a5)
     78e:	2ca020ef          	jal	ra,2a58 <__muldf3>
     792:	000067b7          	lui	a5,0x6
     796:	af07a603          	lw	a2,-1296(a5) # 5af0 <_read+0x28>
     79a:	af47a683          	lw	a3,-1292(a5)
     79e:	4be010ef          	jal	ra,1c5c <__adddf3>
     7a2:	000067b7          	lui	a5,0x6
     7a6:	862a                	mv	a2,a0
     7a8:	86ae                	mv	a3,a1
     7aa:	af87a503          	lw	a0,-1288(a5) # 5af8 <_read+0x30>
     7ae:	afc7a583          	lw	a1,-1284(a5)
     7b2:	3db010ef          	jal	ra,238c <__divdf3>
     7b6:	000067b7          	lui	a5,0x6
     7ba:	b007a603          	lw	a2,-1280(a5) # 5b00 <_read+0x38>
     7be:	b047a683          	lw	a3,-1276(a5)
     7c2:	74e020ef          	jal	ra,2f10 <__subdf3>
     7c6:	773030ef          	jal	ra,4738 <__truncdfsf2>
     7ca:	6c3030ef          	jal	ra,468c <__extendsfdf2>
     7ce:	643000ef          	jal	ra,1610 <floor>
     7d2:	6b9020ef          	jal	ra,368a <__fixunsdfsi>
     7d6:	0542                	slli	a0,a0,0x10
     7d8:	8141                	srli	a0,a0,0x10
     7da:	97bff06f          	j	154 <__riscv_restore_0>

000007de <calculatePWM>:
     7de:	953ff2ef          	jal	t0,130 <__riscv_save_0>
     7e2:	003207b7          	lui	a5,0x320
     7e6:	1101                	addi	sp,sp,-32
     7e8:	03778793          	addi	a5,a5,55 # 320037 <_data_lma+0x31a0eb>
     7ec:	c03e                	sw	a5,0(sp)
     7ee:	02d00793          	li	a5,45
     7f2:	827c                	sh	a5,4(sp)
     7f4:	005007b7          	lui	a5,0x500
     7f8:	05a78793          	addi	a5,a5,90 # 50005a <_data_lma+0x4fa10e>
     7fc:	c43e                	sw	a5,8(sp)
     7fe:	04600793          	li	a5,70
     802:	867c                	sh	a5,12(sp)
     804:	001407b7          	lui	a5,0x140
     808:	07bd                	addi	a5,a5,15
     80a:	c83e                	sw	a5,16(sp)
     80c:	47d9                	li	a5,22
     80e:	82fc                	sh	a5,20(sp)
     810:	fe7107b7          	lui	a5,0xfe710
     814:	ea278793          	addi	a5,a5,-350 # fe70fea2 <_eusrstack+0xde70aea2>
     818:	cc3e                	sw	a5,24(sp)
     81a:	e7000793          	li	a5,-400
     81e:	84b2                	mv	s1,a2
     820:	842e                	mv	s0,a1
     822:	86fc                	sh	a5,28(sp)
     824:	59b030ef          	jal	ra,45be <__floatunsisf>
     828:	000067b7          	lui	a5,0x6
     82c:	ad47a583          	lw	a1,-1324(a5) # 5ad4 <_read+0xc>
     830:	0486                	slli	s1,s1,0x1
     832:	290030ef          	jal	ra,3ac2 <__divsf3>
     836:	85a2                	mv	a1,s0
     838:	64e030ef          	jal	ra,3e86 <__mulsf3>
     83c:	000067b7          	lui	a5,0x6
     840:	85aa                	mv	a1,a0
     842:	ad87a503          	lw	a0,-1320(a5) # 5ad8 <_read+0x10>
     846:	27c030ef          	jal	ra,3ac2 <__divsf3>
     84a:	000067b7          	lui	a5,0x6
     84e:	adc7a583          	lw	a1,-1316(a5) # 5adc <_read+0x14>
     852:	0c9030ef          	jal	ra,411a <__subsf3>
     856:	000067b7          	lui	a5,0x6
     85a:	ae07a583          	lw	a1,-1312(a5) # 5ae0 <_read+0x18>
     85e:	264030ef          	jal	ra,3ac2 <__divsf3>
     862:	62b030ef          	jal	ra,468c <__extendsfdf2>
     866:	6fb000ef          	jal	ra,1760 <log>
     86a:	000067b7          	lui	a5,0x6
     86e:	ae87a603          	lw	a2,-1304(a5) # 5ae8 <_read+0x20>
     872:	aec7a683          	lw	a3,-1300(a5)
     876:	1e2020ef          	jal	ra,2a58 <__muldf3>
     87a:	000067b7          	lui	a5,0x6
     87e:	af07a603          	lw	a2,-1296(a5) # 5af0 <_read+0x28>
     882:	af47a683          	lw	a3,-1292(a5)
     886:	3d6010ef          	jal	ra,1c5c <__adddf3>
     88a:	000067b7          	lui	a5,0x6
     88e:	862a                	mv	a2,a0
     890:	86ae                	mv	a3,a1
     892:	af87a503          	lw	a0,-1288(a5) # 5af8 <_read+0x30>
     896:	afc7a583          	lw	a1,-1284(a5)
     89a:	2f3010ef          	jal	ra,238c <__divdf3>
     89e:	000067b7          	lui	a5,0x6
     8a2:	b007a603          	lw	a2,-1280(a5) # 5b00 <_read+0x38>
     8a6:	b047a683          	lw	a3,-1276(a5)
     8aa:	666020ef          	jal	ra,2f10 <__subdf3>
     8ae:	68b030ef          	jal	ra,4738 <__truncdfsf2>
     8b2:	101c                	addi	a5,sp,32
     8b4:	94be                	add	s1,s1,a5
     8b6:	fe04d403          	lhu	s0,-32(s1)
     8ba:	892a                	mv	s2,a0
     8bc:	8522                	mv	a0,s0
     8be:	43b030ef          	jal	ra,44f8 <__floatsisf>
     8c2:	85ca                	mv	a1,s2
     8c4:	4b0030ef          	jal	ra,3d74 <__gesf2>
     8c8:	00a05f63          	blez	a0,8e6 <__stack_size+0xe6>
     8cc:	ff04d783          	lhu	a5,-16(s1)
     8d0:	02f407b3          	mul	a5,s0,a5
     8d4:	ff84d403          	lhu	s0,-8(s1)
     8d8:	97a2                	add	a5,a5,s0
     8da:	07c2                	slli	a5,a5,0x10
     8dc:	83c1                	srli	a5,a5,0x10
     8de:	853e                	mv	a0,a5
     8e0:	6105                	addi	sp,sp,32
     8e2:	873ff06f          	j	154 <__riscv_restore_0>
     8e6:	fe84d503          	lhu	a0,-24(s1)
     8ea:	40f030ef          	jal	ra,44f8 <__floatsisf>
     8ee:	85ca                	mv	a1,s2
     8f0:	50a030ef          	jal	ra,3dfa <__lesf2>
     8f4:	4b000793          	li	a5,1200
     8f8:	fe0543e3          	bltz	a0,8de <__stack_size+0xde>
     8fc:	ff049503          	lh	a0,-16(s1)
     900:	3f9030ef          	jal	ra,44f8 <__floatsisf>
     904:	85ca                	mv	a1,s2
     906:	580030ef          	jal	ra,3e86 <__mulsf3>
     90a:	842a                	mv	s0,a0
     90c:	ff849503          	lh	a0,-8(s1)
     910:	3e9030ef          	jal	ra,44f8 <__floatsisf>
     914:	85aa                	mv	a1,a0
     916:	8522                	mv	a0,s0
     918:	641020ef          	jal	ra,3758 <__addsf3>
     91c:	387030ef          	jal	ra,44a2 <__fixunssfsi>
     920:	01051793          	slli	a5,a0,0x10
     924:	bf65                	j	8dc <__stack_size+0xdc>

00000926 <Flash_Write_Fast>:
     926:	ff0ff2ef          	jal	t0,116 <__riscv_save_4>
     92a:	0800f437          	lui	s0,0x800f
     92e:	10000593          	li	a1,256
     932:	70040513          	addi	a0,s0,1792 # 800f700 <_data_lma+0x80097b4>
     936:	2b39                	jal	e54 <FLASH_ROM_ERASE>
     938:	4791                	li	a5,4
     93a:	00f50a63          	beq	a0,a5,94e <Flash_Write_Fast+0x28>
     93e:	00006537          	lui	a0,0x6
     942:	b2850513          	addi	a0,a0,-1240 # 5b28 <_read+0x60>
     946:	0e6040ef          	jal	ra,4a2c <puts>
     94a:	801ff06f          	j	14a <__riscv_restore_4>
     94e:	89aa                	mv	s3,a0
     950:	00006537          	lui	a0,0x6
     954:	b7050513          	addi	a0,a0,-1168 # 5b70 <_read+0xa8>
     958:	0d4040ef          	jal	ra,4a2c <puts>
     95c:	70042603          	lw	a2,1792(s0)
     960:	70040493          	addi	s1,s0,1792
     964:	00006937          	lui	s2,0x6
     968:	85a6                	mv	a1,s1
     96a:	b1490513          	addi	a0,s2,-1260 # 5b14 <_read+0x4c>
     96e:	7ab030ef          	jal	ra,4918 <iprintf>
     972:	200005b7          	lui	a1,0x20000
     976:	00c58a13          	addi	s4,a1,12 # 2000000c <buf>
     97a:	10000613          	li	a2,256
     97e:	00c58593          	addi	a1,a1,12
     982:	8526                	mv	a0,s1
     984:	2d89                	jal	fd6 <FLASH_ROM_WRITE>
     986:	fb351ce3          	bne	a0,s3,93e <Flash_Write_Fast+0x18>
     98a:	00006537          	lui	a0,0x6
     98e:	b8050513          	addi	a0,a0,-1152 # 5b80 <_read+0xb8>
     992:	09a040ef          	jal	ra,4a2c <puts>
     996:	70042603          	lw	a2,1792(s0)
     99a:	85a6                	mv	a1,s1
     99c:	b1490513          	addi	a0,s2,-1260
     9a0:	779030ef          	jal	ra,4918 <iprintf>
     9a4:	000a2703          	lw	a4,0(s4)
     9a8:	70042783          	lw	a5,1792(s0)
     9ac:	10000593          	li	a1,256
     9b0:	00f71963          	bne	a4,a5,9c2 <Flash_Write_Fast+0x9c>
     9b4:	00006537          	lui	a0,0x6
     9b8:	b9050513          	addi	a0,a0,-1136 # 5b90 <_read+0xc8>
     9bc:	75d030ef          	jal	ra,4918 <iprintf>
     9c0:	b769                	j	94a <Flash_Write_Fast+0x24>
     9c2:	00006537          	lui	a0,0x6
     9c6:	ba850513          	addi	a0,a0,-1112 # 5ba8 <_read+0xe0>
     9ca:	bfcd                	j	9bc <Flash_Write_Fast+0x96>

000009cc <main>:
     9cc:	f3cff2ef          	jal	t0,108 <__riscv_save_10>
     9d0:	1141                	addi	sp,sp,-16
     9d2:	00011623          	sh	zero,12(sp)
     9d6:	00010723          	sb	zero,14(sp)
     9da:	2a8d                	jal	b4c <SystemCoreClockUpdate>
     9dc:	2eb000ef          	jal	ra,14c6 <Delay_Init>
     9e0:	6571                	lui	a0,0x1c
     9e2:	20050513          	addi	a0,a0,512 # 1c200 <_data_lma+0x162b4>
     9e6:	377000ef          	jal	ra,155c <USART_Printf_Init>
     9ea:	25800613          	li	a2,600
     9ee:	4585                	li	a1,1
     9f0:	4b000513          	li	a0,1200
     9f4:	36d5                	jal	5d8 <TIM1_PWMOut_Init>
     9f6:	3179                	jal	684 <ADC_Function_Init>
     9f8:	811ff0ef          	jal	ra,208 <soft_AiP650E_Init>
     9fc:	4b000613          	li	a2,1200
     a00:	4585                	li	a1,1
     a02:	4b000513          	li	a0,1200
     a06:	3ec9                	jal	5d8 <TIM1_PWMOut_Init>
     a08:	3659                	jal	58e <AiP650E_Fresh>
     a0a:	3e800513          	li	a0,1000
     a0e:	319000ef          	jal	ra,1526 <Delay_Ms>
     a12:	0800f937          	lui	s2,0x800f
     a16:	70092583          	lw	a1,1792(s2) # 800f700 <_data_lma+0x80097b4>
     a1a:	200004b7          	lui	s1,0x20000
     a1e:	000069b7          	lui	s3,0x6
     a22:	0ff5f413          	andi	s0,a1,255
     a26:	00b4a623          	sw	a1,12(s1) # 2000000c <buf>
     a2a:	bc498513          	addi	a0,s3,-1084 # 5bc4 <_read+0xfc>
     a2e:	85a2                	mv	a1,s0
     a30:	6e9030ef          	jal	ra,4918 <iprintf>
     a34:	4789                	li	a5,2
     a36:	00c48493          	addi	s1,s1,12
     a3a:	0087f663          	bgeu	a5,s0,a46 <main+0x7a>
     a3e:	c09c                	sw	a5,0(s1)
     a40:	35dd                	jal	926 <Flash_Write_Fast>
     a42:	70094403          	lbu	s0,1792(s2)
     a46:	85a2                	mv	a1,s0
     a48:	0068                	addi	a0,sp,12
     a4a:	ad9ff0ef          	jal	ra,522 <AiP_Mode2Array>
     a4e:	0068                	addi	a0,sp,12
     a50:	aebff0ef          	jal	ra,53a <AiP650E_Display_Number>
     a54:	3e800513          	li	a0,1000
     a58:	2cf000ef          	jal	ra,1526 <Delay_Ms>
     a5c:	000067b7          	lui	a5,0x6
     a60:	bc07aa83          	lw	s5,-1088(a5) # 5bc0 <_read+0xf8>
     a64:	4901                	li	s2,0
     a66:	4a01                	li	s4,0
     a68:	04600b13          	li	s6,70
     a6c:	4c09                	li	s8,2
     a6e:	0800fcb7          	lui	s9,0x800f
     a72:	4b95                	li	s7,5
     a74:	b39ff0ef          	jal	ra,5ac <AiP650E_Return_KEY>
     a78:	03651863          	bne	a0,s6,aa8 <main+0xdc>
     a7c:	409c                	lw	a5,0(s1)
     a7e:	0785                	addi	a5,a5,1
     a80:	06fc6963          	bltu	s8,a5,af2 <main+0x126>
     a84:	c09c                	sw	a5,0(s1)
     a86:	3545                	jal	926 <Flash_Write_Fast>
     a88:	700ca583          	lw	a1,1792(s9) # 800f700 <_data_lma+0x80097b4>
     a8c:	bc498513          	addi	a0,s3,-1084
     a90:	0ff5f413          	andi	s0,a1,255
     a94:	85a2                	mv	a1,s0
     a96:	683030ef          	jal	ra,4918 <iprintf>
     a9a:	0068                	addi	a0,sp,12
     a9c:	85a2                	mv	a1,s0
     a9e:	a85ff0ef          	jal	ra,522 <AiP_Mode2Array>
     aa2:	0068                	addi	a0,sp,12
     aa4:	a97ff0ef          	jal	ra,53a <AiP650E_Display_Number>
     aa8:	3e800513          	li	a0,1000
     aac:	27b000ef          	jal	ra,1526 <Delay_Ms>
     ab0:	4505                	li	a0,1
     ab2:	3991                	jal	706 <Get_ADC_Val>
     ab4:	8622                	mv	a2,s0
     ab6:	85d6                	mv	a1,s5
     ab8:	8d2a                	mv	s10,a0
     aba:	3315                	jal	7de <calculatePWM>
     abc:	862a                	mv	a2,a0
     abe:	4585                	li	a1,1
     ac0:	4b000513          	li	a0,1200
     ac4:	0905                	addi	s2,s2,1
     ac6:	b13ff0ef          	jal	ra,5d8 <TIM1_PWMOut_Init>
     aca:	0ff97913          	andi	s2,s2,255
     ace:	020a0563          	beqz	s4,af8 <main+0x12c>
     ad2:	85d6                	mv	a1,s5
     ad4:	856a                	mv	a0,s10
     ad6:	318d                	jal	738 <ADC2TEMP>
     ad8:	85aa                	mv	a1,a0
     ada:	0068                	addi	a0,sp,12
     adc:	9ddff0ef          	jal	ra,4b8 <AiP_Temp2Array>
     ae0:	0068                	addi	a0,sp,12
     ae2:	a59ff0ef          	jal	ra,53a <AiP650E_Display_Number>
     ae6:	f97917e3          	bne	s2,s7,a74 <main+0xa8>
     aea:	001a4a13          	xori	s4,s4,1
     aee:	4901                	li	s2,0
     af0:	b751                	j	a74 <main+0xa8>
     af2:	0004a023          	sw	zero,0(s1)
     af6:	bf41                	j	a86 <main+0xba>
     af8:	85d6                	mv	a1,s5
     afa:	8622                	mv	a2,s0
     afc:	856a                	mv	a0,s10
     afe:	31c5                	jal	7de <calculatePWM>
     b00:	85aa                	mv	a1,a0
     b02:	0068                	addi	a0,sp,12
     b04:	9e3ff0ef          	jal	ra,4e6 <AiP_PWM2Array>
     b08:	bfe1                	j	ae0 <main+0x114>

00000b0a <SystemInit>:
     b0a:	400217b7          	lui	a5,0x40021
     b0e:	4398                	lw	a4,0(a5)
     b10:	f90006b7          	lui	a3,0xf9000
     b14:	f5f68693          	addi	a3,a3,-161 # f8ffff5f <_eusrstack+0xd8ffaf5f>
     b18:	00176713          	ori	a4,a4,1
     b1c:	c398                	sw	a4,0(a5)
     b1e:	43d8                	lw	a4,4(a5)
     b20:	05076713          	ori	a4,a4,80
     b24:	c3d8                	sw	a4,4(a5)
     b26:	43d8                	lw	a4,4(a5)
     b28:	8f75                	and	a4,a4,a3
     b2a:	c3d8                	sw	a4,4(a5)
     b2c:	40022737          	lui	a4,0x40022
     b30:	4314                	lw	a3,0(a4)
     b32:	9af1                	andi	a3,a3,-4
     b34:	c314                	sw	a3,0(a4)
     b36:	4314                	lw	a3,0(a4)
     b38:	0026e693          	ori	a3,a3,2
     b3c:	c314                	sw	a3,0(a4)
     b3e:	43d8                	lw	a4,4(a5)
     b40:	f0f77713          	andi	a4,a4,-241
     b44:	c3d8                	sw	a4,4(a5)
     b46:	43d8                	lw	a4,4(a5)
     b48:	c3d8                	sw	a4,4(a5)
     b4a:	8082                	ret

00000b4c <SystemCoreClockUpdate>:
     b4c:	400216b7          	lui	a3,0x40021
     b50:	42dc                	lw	a5,4(a3)
     b52:	8391                	srli	a5,a5,0x4
     b54:	00f7f713          	andi	a4,a5,15
     b58:	200007b7          	lui	a5,0x20000
     b5c:	10c78793          	addi	a5,a5,268 # 2000010c <AHBPrescTable>
     b60:	97ba                	add	a5,a5,a4
     b62:	239c                	lbu	a5,0(a5)
     b64:	42d4                	lw	a3,4(a3)
     b66:	02dc7737          	lui	a4,0x2dc7
     b6a:	0ff7f793          	andi	a5,a5,255
     b6e:	c0070713          	addi	a4,a4,-1024 # 2dc6c00 <_data_lma+0x2dc0cb4>
     b72:	0806f693          	andi	a3,a3,128
     b76:	00f75633          	srl	a2,a4,a5
     b7a:	e299                	bnez	a3,b80 <SystemCoreClockUpdate+0x34>
     b7c:	02f75633          	divu	a2,a4,a5
     b80:	80c1a223          	sw	a2,-2044(gp) # 20000194 <SystemCoreClock>
     b84:	8082                	ret

00000b86 <ADC1_IRQHandler>:
     b86:	a001                	j	b86 <ADC1_IRQHandler>

00000b88 <handle_reset>:
     b88:	20000197          	auipc	gp,0x20000
     b8c:	e0818193          	addi	gp,gp,-504 # 20000990 <__global_pointer$>
     b90:	20004117          	auipc	sp,0x20004
     b94:	47010113          	addi	sp,sp,1136 # 20005000 <_eusrstack>
     b98:	00005517          	auipc	a0,0x5
     b9c:	3b450513          	addi	a0,a0,948 # 5f4c <_data_lma>
     ba0:	1ffff597          	auipc	a1,0x1ffff
     ba4:	46058593          	addi	a1,a1,1120 # 20000000 <_data_vma>
     ba8:	82c18613          	addi	a2,gp,-2004 # 200001bc <_edata>
     bac:	00c5fa63          	bgeu	a1,a2,bc0 <handle_reset+0x38>
     bb0:	00052283          	lw	t0,0(a0)
     bb4:	0055a023          	sw	t0,0(a1)
     bb8:	0511                	addi	a0,a0,4
     bba:	0591                	addi	a1,a1,4
     bbc:	fec5eae3          	bltu	a1,a2,bb0 <handle_reset+0x28>
     bc0:	82c18513          	addi	a0,gp,-2004 # 200001bc <_edata>
     bc4:	83c18593          	addi	a1,gp,-1988 # 200001cc <_ebss>
     bc8:	00b57763          	bgeu	a0,a1,bd6 <handle_reset+0x4e>
     bcc:	00052023          	sw	zero,0(a0)
     bd0:	0511                	addi	a0,a0,4
     bd2:	feb56de3          	bltu	a0,a1,bcc <handle_reset+0x44>
     bd6:	42fd                	li	t0,31
     bd8:	bc029073          	csrw	0xbc0,t0
     bdc:	428d                	li	t0,3
     bde:	80429073          	csrw	0x804,t0
     be2:	08800293          	li	t0,136
     be6:	30029073          	csrw	mstatus,t0
     bea:	fffff297          	auipc	t0,0xfffff
     bee:	41a28293          	addi	t0,t0,1050 # 4 <_einit>
     bf2:	0032e293          	ori	t0,t0,3
     bf6:	30529073          	csrw	mtvec,t0
     bfa:	f11ff0ef          	jal	ra,b0a <SystemInit>
     bfe:	00000297          	auipc	t0,0x0
     c02:	dce28293          	addi	t0,t0,-562 # 9cc <main>
     c06:	34129073          	csrw	mepc,t0
     c0a:	30200073          	mret

00000c0e <ADC_DeInit>:
     c0e:	400127b7          	lui	a5,0x40012
     c12:	40078793          	addi	a5,a5,1024 # 40012400 <_eusrstack+0x2000d400>
     c16:	00f51e63          	bne	a0,a5,c32 <ADC_DeInit+0x24>
     c1a:	d16ff2ef          	jal	t0,130 <__riscv_save_0>
     c1e:	4585                	li	a1,1
     c20:	20000513          	li	a0,512
     c24:	2d45                	jal	12d4 <RCC_APB2PeriphResetCmd>
     c26:	4581                	li	a1,0
     c28:	20000513          	li	a0,512
     c2c:	2565                	jal	12d4 <RCC_APB2PeriphResetCmd>
     c2e:	d26ff06f          	j	154 <__riscv_restore_0>
     c32:	8082                	ret

00000c34 <ADC_Init>:
     c34:	415c                	lw	a5,4(a0)
     c36:	e0f10737          	lui	a4,0xe0f10
     c3a:	eff70713          	addi	a4,a4,-257 # e0f0feff <_eusrstack+0xc0f0aeff>
     c3e:	4d94                	lw	a3,24(a1)
     c40:	8f7d                	and	a4,a4,a5
     c42:	419c                	lw	a5,0(a1)
     c44:	8fd5                	or	a5,a5,a3
     c46:	4dd4                	lw	a3,28(a1)
     c48:	8fd5                	or	a5,a5,a3
     c4a:	41d4                	lw	a3,4(a1)
     c4c:	06a2                	slli	a3,a3,0x8
     c4e:	8fd5                	or	a5,a5,a3
     c50:	8fd9                	or	a5,a5,a4
     c52:	c15c                	sw	a5,4(a0)
     c54:	451c                	lw	a5,8(a0)
     c56:	fff1f737          	lui	a4,0xfff1f
     c5a:	7fd70713          	addi	a4,a4,2045 # fff1f7fd <_eusrstack+0xdff1a7fd>
     c5e:	45d4                	lw	a3,12(a1)
     c60:	8f7d                	and	a4,a4,a5
     c62:	499c                	lw	a5,16(a1)
     c64:	8fd5                	or	a5,a5,a3
     c66:	4594                	lw	a3,8(a1)
     c68:	0686                	slli	a3,a3,0x1
     c6a:	8fd5                	or	a5,a5,a3
     c6c:	8fd9                	or	a5,a5,a4
     c6e:	c51c                	sw	a5,8(a0)
     c70:	555c                	lw	a5,44(a0)
     c72:	ff100737          	lui	a4,0xff100
     c76:	177d                	addi	a4,a4,-1
     c78:	8f7d                	and	a4,a4,a5
     c7a:	29dc                	lbu	a5,20(a1)
     c7c:	17fd                	addi	a5,a5,-1
     c7e:	0ff7f793          	andi	a5,a5,255
     c82:	07d2                	slli	a5,a5,0x14
     c84:	8fd9                	or	a5,a5,a4
     c86:	d55c                	sw	a5,44(a0)
     c88:	8082                	ret

00000c8a <ADC_Cmd>:
     c8a:	451c                	lw	a5,8(a0)
     c8c:	c589                	beqz	a1,c96 <ADC_Cmd+0xc>
     c8e:	0017e793          	ori	a5,a5,1
     c92:	c51c                	sw	a5,8(a0)
     c94:	8082                	ret
     c96:	9bf9                	andi	a5,a5,-2
     c98:	bfed                	j	c92 <ADC_Cmd+0x8>

00000c9a <ADC_DMACmd>:
     c9a:	451c                	lw	a5,8(a0)
     c9c:	c589                	beqz	a1,ca6 <ADC_DMACmd+0xc>
     c9e:	1007e793          	ori	a5,a5,256
     ca2:	c51c                	sw	a5,8(a0)
     ca4:	8082                	ret
     ca6:	eff7f793          	andi	a5,a5,-257
     caa:	bfe5                	j	ca2 <ADC_DMACmd+0x8>

00000cac <ADC_SoftwareStartConvCmd>:
     cac:	451c                	lw	a5,8(a0)
     cae:	c591                	beqz	a1,cba <ADC_SoftwareStartConvCmd+0xe>
     cb0:	00500737          	lui	a4,0x500
     cb4:	8fd9                	or	a5,a5,a4
     cb6:	c51c                	sw	a5,8(a0)
     cb8:	8082                	ret
     cba:	ffb00737          	lui	a4,0xffb00
     cbe:	177d                	addi	a4,a4,-1
     cc0:	8ff9                	and	a5,a5,a4
     cc2:	bfd5                	j	cb6 <ADC_SoftwareStartConvCmd+0xa>

00000cc4 <ADC_RegularChannelConfig>:
     cc4:	47a5                	li	a5,9
     cc6:	04b7f763          	bgeu	a5,a1,d14 <ADC_RegularChannelConfig+0x50>
     cca:	478d                	li	a5,3
     ccc:	ff658713          	addi	a4,a1,-10
     cd0:	02f70733          	mul	a4,a4,a5
     cd4:	00c52803          	lw	a6,12(a0)
     cd8:	479d                	li	a5,7
     cda:	00e797b3          	sll	a5,a5,a4
     cde:	fff7c793          	not	a5,a5
     ce2:	0107f7b3          	and	a5,a5,a6
     ce6:	00e696b3          	sll	a3,a3,a4
     cea:	8edd                	or	a3,a3,a5
     cec:	c554                	sw	a3,12(a0)
     cee:	4799                	li	a5,6
     cf0:	04c7e363          	bltu	a5,a2,d36 <ADC_RegularChannelConfig+0x72>
     cf4:	4795                	li	a5,5
     cf6:	167d                	addi	a2,a2,-1
     cf8:	02f60633          	mul	a2,a2,a5
     cfc:	5958                	lw	a4,52(a0)
     cfe:	47fd                	li	a5,31
     d00:	00c797b3          	sll	a5,a5,a2
     d04:	fff7c793          	not	a5,a5
     d08:	8ff9                	and	a5,a5,a4
     d0a:	00c59633          	sll	a2,a1,a2
     d0e:	8e5d                	or	a2,a2,a5
     d10:	d950                	sw	a2,52(a0)
     d12:	8082                	ret
     d14:	470d                	li	a4,3
     d16:	02e58733          	mul	a4,a1,a4
     d1a:	01052803          	lw	a6,16(a0)
     d1e:	479d                	li	a5,7
     d20:	00e797b3          	sll	a5,a5,a4
     d24:	fff7c793          	not	a5,a5
     d28:	0107f7b3          	and	a5,a5,a6
     d2c:	00e696b3          	sll	a3,a3,a4
     d30:	8edd                	or	a3,a3,a5
     d32:	c914                	sw	a3,16(a0)
     d34:	bf6d                	j	cee <ADC_RegularChannelConfig+0x2a>
     d36:	47b1                	li	a5,12
     d38:	02c7e263          	bltu	a5,a2,d5c <ADC_RegularChannelConfig+0x98>
     d3c:	4795                	li	a5,5
     d3e:	1665                	addi	a2,a2,-7
     d40:	02f60633          	mul	a2,a2,a5
     d44:	5918                	lw	a4,48(a0)
     d46:	47fd                	li	a5,31
     d48:	00c797b3          	sll	a5,a5,a2
     d4c:	fff7c793          	not	a5,a5
     d50:	8ff9                	and	a5,a5,a4
     d52:	00c59633          	sll	a2,a1,a2
     d56:	8e5d                	or	a2,a2,a5
     d58:	d910                	sw	a2,48(a0)
     d5a:	8082                	ret
     d5c:	4795                	li	a5,5
     d5e:	164d                	addi	a2,a2,-13
     d60:	02f60633          	mul	a2,a2,a5
     d64:	5558                	lw	a4,44(a0)
     d66:	47fd                	li	a5,31
     d68:	00c797b3          	sll	a5,a5,a2
     d6c:	fff7c793          	not	a5,a5
     d70:	8ff9                	and	a5,a5,a4
     d72:	00c595b3          	sll	a1,a1,a2
     d76:	8ddd                	or	a1,a1,a5
     d78:	d54c                	sw	a1,44(a0)
     d7a:	8082                	ret

00000d7c <ADC_GetConversionValue>:
     d7c:	4568                	lw	a0,76(a0)
     d7e:	0542                	slli	a0,a0,0x10
     d80:	8141                	srli	a0,a0,0x10
     d82:	8082                	ret

00000d84 <ADC_GetFlagStatus>:
     d84:	4108                	lw	a0,0(a0)
     d86:	8d6d                	and	a0,a0,a1
     d88:	00a03533          	snez	a0,a0
     d8c:	8082                	ret

00000d8e <ADC_CLKConfig>:
     d8e:	493c                	lw	a5,80(a0)
     d90:	e007f793          	andi	a5,a5,-512
     d94:	8ddd                	or	a1,a1,a5
     d96:	c92c                	sw	a1,80(a0)
     d98:	8082                	ret

00000d9a <ROM_ERASE>:
     d9a:	400226b7          	lui	a3,0x40022
     d9e:	4a9c                	lw	a5,16(a3)
     da0:	7701                	lui	a4,0xfffe0
     da2:	fdf70813          	addi	a6,a4,-33 # fffdffdf <_eusrstack+0xdffdafdf>
     da6:	0107f7b3          	and	a5,a5,a6
     daa:	ca9c                	sw	a5,16(a3)
     dac:	ff8006b7          	lui	a3,0xff800
     db0:	68a1                	lui	a7,0x8
     db2:	40000313          	li	t1,1024
     db6:	10000e13          	li	t3,256
     dba:	400227b7          	lui	a5,0x40022
     dbe:	00020eb7          	lui	t4,0x20
     dc2:	00800f37          	lui	t5,0x800
     dc6:	177d                	addi	a4,a4,-1
     dc8:	16fd                	addi	a3,a3,-1
     dca:	05161163          	bne	a2,a7,e0c <ROM_ERASE+0x72>
     dce:	0107a803          	lw	a6,16(a5) # 40022010 <_eusrstack+0x2001d010>
     dd2:	01e86833          	or	a6,a6,t5
     dd6:	0107a823          	sw	a6,16(a5)
     dda:	cbc8                	sw	a0,20(a5)
     ddc:	0107a803          	lw	a6,16(a5)
     de0:	04086813          	ori	a6,a6,64
     de4:	0107a823          	sw	a6,16(a5)
     de8:	00c7a803          	lw	a6,12(a5)
     dec:	00187813          	andi	a6,a6,1
     df0:	fe081ce3          	bnez	a6,de8 <ROM_ERASE+0x4e>
     df4:	03161a63          	bne	a2,a7,e28 <ROM_ERASE+0x8e>
     df8:	0107a803          	lw	a6,16(a5)
     dfc:	9532                	add	a0,a0,a2
     dfe:	00d87833          	and	a6,a6,a3
     e02:	0107a823          	sw	a6,16(a5)
     e06:	15fd                	addi	a1,a1,-1
     e08:	f1e9                	bnez	a1,dca <ROM_ERASE+0x30>
     e0a:	8082                	ret
     e0c:	00661763          	bne	a2,t1,e1a <ROM_ERASE+0x80>
     e10:	0107a803          	lw	a6,16(a5)
     e14:	00286813          	ori	a6,a6,2
     e18:	bf7d                	j	dd6 <ROM_ERASE+0x3c>
     e1a:	fdc610e3          	bne	a2,t3,dda <ROM_ERASE+0x40>
     e1e:	0107a803          	lw	a6,16(a5)
     e22:	01d86833          	or	a6,a6,t4
     e26:	bf45                	j	dd6 <ROM_ERASE+0x3c>
     e28:	00661b63          	bne	a2,t1,e3e <ROM_ERASE+0xa4>
     e2c:	0107a803          	lw	a6,16(a5)
     e30:	40050513          	addi	a0,a0,1024
     e34:	ffd87813          	andi	a6,a6,-3
     e38:	0107a823          	sw	a6,16(a5)
     e3c:	b7e9                	j	e06 <ROM_ERASE+0x6c>
     e3e:	fdc614e3          	bne	a2,t3,e06 <ROM_ERASE+0x6c>
     e42:	0107a803          	lw	a6,16(a5)
     e46:	10050513          	addi	a0,a0,256
     e4a:	00e87833          	and	a6,a6,a4
     e4e:	0107a823          	sw	a6,16(a5)
     e52:	bf55                	j	e06 <ROM_ERASE+0x6c>

00000e54 <FLASH_ROM_ERASE>:
     e54:	f8000737          	lui	a4,0xf8000
     e58:	67bd                	lui	a5,0xf
     e5a:	972a                	add	a4,a4,a0
     e5c:	7ff78793          	addi	a5,a5,2047 # f7ff <_data_lma+0x98b3>
     e60:	16e7e763          	bltu	a5,a4,fce <FLASH_ROM_ERASE+0x17a>
     e64:	ab2ff2ef          	jal	t0,116 <__riscv_save_4>
     e68:	08010737          	lui	a4,0x8010
     e6c:	00b506b3          	add	a3,a0,a1
     e70:	80070713          	addi	a4,a4,-2048 # 800f800 <_data_lma+0x80098b4>
     e74:	89aa                	mv	s3,a0
     e76:	84ae                	mv	s1,a1
     e78:	0fd00793          	li	a5,253
     e7c:	12d76b63          	bltu	a4,a3,fb2 <FLASH_ROM_ERASE+0x15e>
     e80:	00b56733          	or	a4,a0,a1
     e84:	0ff77713          	andi	a4,a4,255
     e88:	0fe00793          	li	a5,254
     e8c:	12071363          	bnez	a4,fb2 <FLASH_ROM_ERASE+0x15e>
     e90:	12058163          	beqz	a1,fb2 <FLASH_ROM_ERASE+0x15e>
     e94:	456706b7          	lui	a3,0x45670
     e98:	400227b7          	lui	a5,0x40022
     e9c:	12368693          	addi	a3,a3,291 # 45670123 <_eusrstack+0x2566b123>
     ea0:	cdef9737          	lui	a4,0xcdef9
     ea4:	c3d4                	sw	a3,4(a5)
     ea6:	9ab70713          	addi	a4,a4,-1621 # cdef89ab <_eusrstack+0xadef39ab>
     eaa:	c3d8                	sw	a4,4(a5)
     eac:	d3d4                	sw	a3,36(a5)
     eae:	d3d8                	sw	a4,36(a5)
     eb0:	67a1                	lui	a5,0x8
     eb2:	04f5e863          	bltu	a1,a5,f02 <FLASH_ROM_ERASE+0xae>
     eb6:	fff78413          	addi	s0,a5,-1 # 7fff <_data_lma+0x20b3>
     eba:	008575b3          	and	a1,a0,s0
     ebe:	40b78a33          	sub	s4,a5,a1
     ec2:	40f48433          	sub	s0,s1,a5
     ec6:	01450933          	add	s2,a0,s4
     eca:	942e                	add	s0,s0,a1
     ecc:	0efa0663          	beq	s4,a5,fb8 <FLASH_ROM_ERASE+0x164>
     ed0:	84d2                	mv	s1,s4
     ed2:	04f46763          	bltu	s0,a5,f20 <FLASH_ROM_ERASE+0xcc>
     ed6:	008907b3          	add	a5,s2,s0
     eda:	01179a93          	slli	s5,a5,0x11
     ede:	011ada93          	srli	s5,s5,0x11
     ee2:	8b4a                	mv	s6,s2
     ee4:	000a8563          	beqz	s5,eee <FLASH_ROM_ERASE+0x9a>
     ee8:	7b61                	lui	s6,0xffff8
     eea:	0167fb33          	and	s6,a5,s6
     eee:	415405b3          	sub	a1,s0,s5
     ef2:	854a                	mv	a0,s2
     ef4:	6621                	lui	a2,0x8
     ef6:	81bd                	srli	a1,a1,0xf
     ef8:	354d                	jal	d9a <ROM_ERASE>
     efa:	84d2                	mv	s1,s4
     efc:	8456                	mv	s0,s5
     efe:	895a                	mv	s2,s6
     f00:	a005                	j	f20 <FLASH_ROM_ERASE+0xcc>
     f02:	3ff00793          	li	a5,1023
     f06:	08b7f763          	bgeu	a5,a1,f94 <FLASH_ROM_ERASE+0x140>
     f0a:	3ff57593          	andi	a1,a0,1023
     f0e:	40000793          	li	a5,1024
     f12:	8f8d                	sub	a5,a5,a1
     f14:	c0048413          	addi	s0,s1,-1024
     f18:	00f50933          	add	s2,a0,a5
     f1c:	942e                	add	s0,s0,a1
     f1e:	84be                	mv	s1,a5
     f20:	3ff00793          	li	a5,1023
     f24:	0297f363          	bgeu	a5,s1,f4a <FLASH_ROM_ERASE+0xf6>
     f28:	3ff9f793          	andi	a5,s3,1023
     f2c:	4a01                	li	s4,0
     f2e:	c789                	beqz	a5,f38 <FLASH_ROM_ERASE+0xe4>
     f30:	40000a13          	li	s4,1024
     f34:	40fa0a33          	sub	s4,s4,a5
     f38:	414485b3          	sub	a1,s1,s4
     f3c:	40000613          	li	a2,1024
     f40:	81a9                	srli	a1,a1,0xa
     f42:	013a0533          	add	a0,s4,s3
     f46:	3d91                	jal	d9a <ROM_ERASE>
     f48:	84d2                	mv	s1,s4
     f4a:	3ff00793          	li	a5,1023
     f4e:	0287f463          	bgeu	a5,s0,f76 <FLASH_ROM_ERASE+0x122>
     f52:	012407b3          	add	a5,s0,s2
     f56:	3ff7fa13          	andi	s4,a5,1023
     f5a:	8aca                	mv	s5,s2
     f5c:	000a0463          	beqz	s4,f64 <FLASH_ROM_ERASE+0x110>
     f60:	c007fa93          	andi	s5,a5,-1024
     f64:	414405b3          	sub	a1,s0,s4
     f68:	854a                	mv	a0,s2
     f6a:	40000613          	li	a2,1024
     f6e:	81a9                	srli	a1,a1,0xa
     f70:	352d                	jal	d9a <ROM_ERASE>
     f72:	8452                	mv	s0,s4
     f74:	8956                	mv	s2,s5
     f76:	c499                	beqz	s1,f84 <FLASH_ROM_ERASE+0x130>
     f78:	10000613          	li	a2,256
     f7c:	0084d593          	srli	a1,s1,0x8
     f80:	854e                	mv	a0,s3
     f82:	3d21                	jal	d9a <ROM_ERASE>
     f84:	cc01                	beqz	s0,f9c <FLASH_ROM_ERASE+0x148>
     f86:	10000613          	li	a2,256
     f8a:	00845593          	srli	a1,s0,0x8
     f8e:	854a                	mv	a0,s2
     f90:	3529                	jal	d9a <ROM_ERASE>
     f92:	a029                	j	f9c <FLASH_ROM_ERASE+0x148>
     f94:	0ff00793          	li	a5,255
     f98:	02b7e863          	bltu	a5,a1,fc8 <FLASH_ROM_ERASE+0x174>
     f9c:	400227b7          	lui	a5,0x40022
     fa0:	4b98                	lw	a4,16(a5)
     fa2:	66a1                	lui	a3,0x8
     fa4:	8f55                	or	a4,a4,a3
     fa6:	cb98                	sw	a4,16(a5)
     fa8:	4b98                	lw	a4,16(a5)
     faa:	08076713          	ori	a4,a4,128
     fae:	cb98                	sw	a4,16(a5)
     fb0:	4791                	li	a5,4
     fb2:	853e                	mv	a0,a5
     fb4:	996ff06f          	j	14a <__riscv_restore_4>
     fb8:	6621                	lui	a2,0x8
     fba:	4585                	li	a1,1
     fbc:	3bf9                	jal	d9a <ROM_ERASE>
     fbe:	4481                	li	s1,0
     fc0:	f94465e3          	bltu	s0,s4,f4a <FLASH_ROM_ERASE+0xf6>
     fc4:	4a01                	li	s4,0
     fc6:	bf01                	j	ed6 <FLASH_ROM_ERASE+0x82>
     fc8:	4401                	li	s0,0
     fca:	4901                	li	s2,0
     fcc:	bfbd                	j	f4a <FLASH_ROM_ERASE+0xf6>
     fce:	0ff00793          	li	a5,255
     fd2:	853e                	mv	a0,a5
     fd4:	8082                	ret

00000fd6 <FLASH_ROM_WRITE>:
     fd6:	f8000737          	lui	a4,0xf8000
     fda:	67bd                	lui	a5,0xf
     fdc:	972a                	add	a4,a4,a0
     fde:	7ff78793          	addi	a5,a5,2047 # f7ff <_data_lma+0x98b3>
     fe2:	0ee7e363          	bltu	a5,a4,10c8 <FLASH_ROM_WRITE+0xf2>
     fe6:	08010737          	lui	a4,0x8010
     fea:	00c506b3          	add	a3,a0,a2
     fee:	80070713          	addi	a4,a4,-2048 # 800f800 <_data_lma+0x80098b4>
     ff2:	0fd00793          	li	a5,253
     ff6:	0cd76563          	bltu	a4,a3,10c0 <FLASH_ROM_WRITE+0xea>
     ffa:	00c56733          	or	a4,a0,a2
     ffe:	0ff77713          	andi	a4,a4,255
    1002:	0fe00793          	li	a5,254
    1006:	ef4d                	bnez	a4,10c0 <FLASH_ROM_WRITE+0xea>
    1008:	ce45                	beqz	a2,10c0 <FLASH_ROM_WRITE+0xea>
    100a:	456706b7          	lui	a3,0x45670
    100e:	400227b7          	lui	a5,0x40022
    1012:	12368693          	addi	a3,a3,291 # 45670123 <_eusrstack+0x2566b123>
    1016:	cdef9737          	lui	a4,0xcdef9
    101a:	c3d4                	sw	a3,4(a5)
    101c:	9ab70713          	addi	a4,a4,-1621 # cdef89ab <_eusrstack+0xadef39ab>
    1020:	c3d8                	sw	a4,4(a5)
    1022:	d3d4                	sw	a3,36(a5)
    1024:	d3d8                	sw	a4,36(a5)
    1026:	4b98                	lw	a4,16(a5)
    1028:	7681                	lui	a3,0xfffe0
    102a:	fdf68693          	addi	a3,a3,-33 # fffdffdf <_eusrstack+0xdffdafdf>
    102e:	8f75                	and	a4,a4,a3
    1030:	76c1                	lui	a3,0xffff0
    1032:	8221                	srli	a2,a2,0x8
    1034:	cb98                	sw	a4,16(a5)
    1036:	8d89                	sub	a1,a1,a0
    1038:	68c1                	lui	a7,0x10
    103a:	00080337          	lui	t1,0x80
    103e:	00040e37          	lui	t3,0x40
    1042:	10000e93          	li	t4,256
    1046:	16fd                	addi	a3,a3,-1
    1048:	4b98                	lw	a4,16(a5)
    104a:	00a58f33          	add	t5,a1,a0
    104e:	01176733          	or	a4,a4,a7
    1052:	cb98                	sw	a4,16(a5)
    1054:	4b98                	lw	a4,16(a5)
    1056:	00676733          	or	a4,a4,t1
    105a:	cb98                	sw	a4,16(a5)
    105c:	47d8                	lw	a4,12(a5)
    105e:	8b05                	andi	a4,a4,1
    1060:	ff75                	bnez	a4,105c <FLASH_ROM_WRITE+0x86>
    1062:	00ef0833          	add	a6,t5,a4
    1066:	00082f83          	lw	t6,0(a6)
    106a:	00e50833          	add	a6,a0,a4
    106e:	01f82023          	sw	t6,0(a6)
    1072:	0107a803          	lw	a6,16(a5) # 40022010 <_eusrstack+0x2001d010>
    1076:	01c86833          	or	a6,a6,t3
    107a:	0107a823          	sw	a6,16(a5)
    107e:	00c7a803          	lw	a6,12(a5)
    1082:	00187813          	andi	a6,a6,1
    1086:	fe081ce3          	bnez	a6,107e <FLASH_ROM_WRITE+0xa8>
    108a:	0711                	addi	a4,a4,4
    108c:	fdd71be3          	bne	a4,t4,1062 <FLASH_ROM_WRITE+0x8c>
    1090:	cbc8                	sw	a0,20(a5)
    1092:	4b98                	lw	a4,16(a5)
    1094:	10050813          	addi	a6,a0,256
    1098:	04076713          	ori	a4,a4,64
    109c:	cb98                	sw	a4,16(a5)
    109e:	47d8                	lw	a4,12(a5)
    10a0:	8b05                	andi	a4,a4,1
    10a2:	ff75                	bnez	a4,109e <FLASH_ROM_WRITE+0xc8>
    10a4:	4b98                	lw	a4,16(a5)
    10a6:	167d                	addi	a2,a2,-1
    10a8:	8f75                	and	a4,a4,a3
    10aa:	cb98                	sw	a4,16(a5)
    10ac:	ee01                	bnez	a2,10c4 <FLASH_ROM_WRITE+0xee>
    10ae:	4b98                	lw	a4,16(a5)
    10b0:	66a1                	lui	a3,0x8
    10b2:	8f55                	or	a4,a4,a3
    10b4:	cb98                	sw	a4,16(a5)
    10b6:	4b98                	lw	a4,16(a5)
    10b8:	08076713          	ori	a4,a4,128
    10bc:	cb98                	sw	a4,16(a5)
    10be:	4791                	li	a5,4
    10c0:	853e                	mv	a0,a5
    10c2:	8082                	ret
    10c4:	8542                	mv	a0,a6
    10c6:	b749                	j	1048 <FLASH_ROM_WRITE+0x72>
    10c8:	0ff00793          	li	a5,255
    10cc:	bfd5                	j	10c0 <FLASH_ROM_WRITE+0xea>

000010ce <GPIO_Init>:
    10ce:	4598                	lw	a4,8(a1)
    10d0:	01077793          	andi	a5,a4,16
    10d4:	00f77813          	andi	a6,a4,15
    10d8:	c781                	beqz	a5,10e0 <GPIO_Init+0x12>
    10da:	41dc                	lw	a5,4(a1)
    10dc:	00f86833          	or	a6,a6,a5
    10e0:	4194                	lw	a3,0(a1)
    10e2:	4781                	li	a5,0
    10e4:	0ff6f613          	andi	a2,a3,255
    10e8:	c239                	beqz	a2,112e <GPIO_Init+0x60>
    10ea:	411c                	lw	a5,0(a0)
    10ec:	4601                	li	a2,0
    10ee:	4e85                	li	t4,1
    10f0:	4f3d                	li	t5,15
    10f2:	02800f93          	li	t6,40
    10f6:	04800293          	li	t0,72
    10fa:	4e21                	li	t3,8
    10fc:	00ce98b3          	sll	a7,t4,a2
    1100:	0116f5b3          	and	a1,a3,a7
    1104:	02b89163          	bne	a7,a1,1126 <GPIO_Init+0x58>
    1108:	00261313          	slli	t1,a2,0x2
    110c:	006f15b3          	sll	a1,t5,t1
    1110:	fff5c593          	not	a1,a1
    1114:	8fed                	and	a5,a5,a1
    1116:	00681333          	sll	t1,a6,t1
    111a:	00f367b3          	or	a5,t1,a5
    111e:	0ff71563          	bne	a4,t6,1208 <GPIO_Init+0x13a>
    1122:	01152a23          	sw	a7,20(a0)
    1126:	0605                	addi	a2,a2,1
    1128:	fdc61ae3          	bne	a2,t3,10fc <GPIO_Init+0x2e>
    112c:	c11c                	sw	a5,0(a0)
    112e:	6641                	lui	a2,0x10
    1130:	f0060613          	addi	a2,a2,-256 # ff00 <_data_lma+0x9fb4>
    1134:	8e75                	and	a2,a2,a3
    1136:	c249                	beqz	a2,11b8 <GPIO_Init+0xea>
    1138:	1ffff637          	lui	a2,0x1ffff
    113c:	70462603          	lw	a2,1796(a2) # 1ffff704 <_data_lma+0x1fff97b8>
    1140:	0f067613          	andi	a2,a2,240
    1144:	e27d                	bnez	a2,122a <GPIO_Init+0x15c>
    1146:	40011637          	lui	a2,0x40011
    114a:	80060593          	addi	a1,a2,-2048 # 40010800 <_eusrstack+0x2000b800>
    114e:	0cb51263          	bne	a0,a1,1212 <GPIO_Init+0x144>
    1152:	8081a783          	lw	a5,-2040(gp) # 20000198 <CFGHR_tmpA>
    1156:	45a1                	li	a1,8
    1158:	4e85                	li	t4,1
    115a:	4f3d                	li	t5,15
    115c:	02800f93          	li	t6,40
    1160:	04800293          	li	t0,72
    1164:	4e41                	li	t3,16
    1166:	00be9333          	sll	t1,t4,a1
    116a:	0066f633          	and	a2,a3,t1
    116e:	02c31263          	bne	t1,a2,1192 <GPIO_Init+0xc4>
    1172:	00259613          	slli	a2,a1,0x2
    1176:	1601                	addi	a2,a2,-32
    1178:	00cf18b3          	sll	a7,t5,a2
    117c:	fff8c893          	not	a7,a7
    1180:	00f8f7b3          	and	a5,a7,a5
    1184:	00c81633          	sll	a2,a6,a2
    1188:	8fd1                	or	a5,a5,a2
    118a:	0bf71263          	bne	a4,t6,122e <GPIO_Init+0x160>
    118e:	00652a23          	sw	t1,20(a0)
    1192:	0585                	addi	a1,a1,1
    1194:	fdc599e3          	bne	a1,t3,1166 <GPIO_Init+0x98>
    1198:	c15c                	sw	a5,4(a0)
    119a:	1ffff637          	lui	a2,0x1ffff
    119e:	70462603          	lw	a2,1796(a2) # 1ffff704 <_data_lma+0x1fff97b8>
    11a2:	0f067613          	andi	a2,a2,240
    11a6:	ea09                	bnez	a2,11b8 <GPIO_Init+0xea>
    11a8:	40011637          	lui	a2,0x40011
    11ac:	80060593          	addi	a1,a2,-2048 # 40010800 <_eusrstack+0x2000b800>
    11b0:	08b51463          	bne	a0,a1,1238 <GPIO_Init+0x16a>
    11b4:	80f1a423          	sw	a5,-2040(gp) # 20000198 <CFGHR_tmpA>
    11b8:	67c1                	lui	a5,0x10
    11ba:	04f6e663          	bltu	a3,a5,1206 <GPIO_Init+0x138>
    11be:	4d50                	lw	a2,28(a0)
    11c0:	4781                	li	a5,0
    11c2:	4e05                	li	t3,1
    11c4:	4f3d                	li	t5,15
    11c6:	02800f93          	li	t6,40
    11ca:	04800293          	li	t0,72
    11ce:	4ea1                	li	t4,8
    11d0:	01078593          	addi	a1,a5,16 # 10010 <_data_lma+0xa0c4>
    11d4:	00be15b3          	sll	a1,t3,a1
    11d8:	00b6f8b3          	and	a7,a3,a1
    11dc:	03159163          	bne	a1,a7,11fe <GPIO_Init+0x130>
    11e0:	00279893          	slli	a7,a5,0x2
    11e4:	011f1333          	sll	t1,t5,a7
    11e8:	fff34313          	not	t1,t1
    11ec:	00c37633          	and	a2,t1,a2
    11f0:	011818b3          	sll	a7,a6,a7
    11f4:	00c8e633          	or	a2,a7,a2
    11f8:	05f71c63          	bne	a4,t6,1250 <GPIO_Init+0x182>
    11fc:	c94c                	sw	a1,20(a0)
    11fe:	0785                	addi	a5,a5,1
    1200:	fdd798e3          	bne	a5,t4,11d0 <GPIO_Init+0x102>
    1204:	cd50                	sw	a2,28(a0)
    1206:	8082                	ret
    1208:	f0571fe3          	bne	a4,t0,1126 <GPIO_Init+0x58>
    120c:	01152823          	sw	a7,16(a0)
    1210:	bf19                	j	1126 <GPIO_Init+0x58>
    1212:	c0060593          	addi	a1,a2,-1024
    1216:	00b51563          	bne	a0,a1,1220 <GPIO_Init+0x152>
    121a:	80c1a783          	lw	a5,-2036(gp) # 2000019c <CFGHR_tmpB>
    121e:	bf25                	j	1156 <GPIO_Init+0x88>
    1220:	f2c51be3          	bne	a0,a2,1156 <GPIO_Init+0x88>
    1224:	8101a783          	lw	a5,-2032(gp) # 200001a0 <CFGHR_tmpC>
    1228:	b73d                	j	1156 <GPIO_Init+0x88>
    122a:	415c                	lw	a5,4(a0)
    122c:	b72d                	j	1156 <GPIO_Init+0x88>
    122e:	f65712e3          	bne	a4,t0,1192 <GPIO_Init+0xc4>
    1232:	00652823          	sw	t1,16(a0)
    1236:	bfb1                	j	1192 <GPIO_Init+0xc4>
    1238:	c0060593          	addi	a1,a2,-1024
    123c:	00b51563          	bne	a0,a1,1246 <GPIO_Init+0x178>
    1240:	80f1a623          	sw	a5,-2036(gp) # 2000019c <CFGHR_tmpB>
    1244:	bf95                	j	11b8 <GPIO_Init+0xea>
    1246:	f6c519e3          	bne	a0,a2,11b8 <GPIO_Init+0xea>
    124a:	80f1a823          	sw	a5,-2032(gp) # 200001a0 <CFGHR_tmpC>
    124e:	b7ad                	j	11b8 <GPIO_Init+0xea>
    1250:	fa5717e3          	bne	a4,t0,11fe <GPIO_Init+0x130>
    1254:	00fe15b3          	sll	a1,t3,a5
    1258:	d10c                	sw	a1,32(a0)
    125a:	b755                	j	11fe <GPIO_Init+0x130>

0000125c <GPIO_ReadInputDataBit>:
    125c:	4508                	lw	a0,8(a0)
    125e:	8d6d                	and	a0,a0,a1
    1260:	00a03533          	snez	a0,a0
    1264:	8082                	ret

00001266 <GPIO_SetBits>:
    1266:	01059793          	slli	a5,a1,0x10
    126a:	83c1                	srli	a5,a5,0x10
    126c:	c91c                	sw	a5,16(a0)
    126e:	81c1                	srli	a1,a1,0x10
    1270:	d10c                	sw	a1,32(a0)
    1272:	8082                	ret

00001274 <GPIO_ResetBits>:
    1274:	c94c                	sw	a1,20(a0)
    1276:	8082                	ret

00001278 <RCC_GetClocksFreq>:
    1278:	02dc77b7          	lui	a5,0x2dc7
    127c:	c0078793          	addi	a5,a5,-1024 # 2dc6c00 <_data_lma+0x2dc0cb4>
    1280:	c11c                	sw	a5,0(a0)
    1282:	40021637          	lui	a2,0x40021
    1286:	4258                	lw	a4,4(a2)
    1288:	8311                	srli	a4,a4,0x4
    128a:	00f77693          	andi	a3,a4,15
    128e:	20000737          	lui	a4,0x20000
    1292:	11c70713          	addi	a4,a4,284 # 2000011c <APBAHBPrescTable>
    1296:	9736                	add	a4,a4,a3
    1298:	2314                	lbu	a3,0(a4)
    129a:	4250                	lw	a2,4(a2)
    129c:	0ff6f693          	andi	a3,a3,255
    12a0:	08067613          	andi	a2,a2,128
    12a4:	00d7d733          	srl	a4,a5,a3
    12a8:	e219                	bnez	a2,12ae <RCC_GetClocksFreq+0x36>
    12aa:	02d7d733          	divu	a4,a5,a3
    12ae:	c158                	sw	a4,4(a0)
    12b0:	c518                	sw	a4,8(a0)
    12b2:	c558                	sw	a4,12(a0)
    12b4:	8082                	ret

000012b6 <RCC_APB2PeriphClockCmd>:
    12b6:	c599                	beqz	a1,12c4 <RCC_APB2PeriphClockCmd+0xe>
    12b8:	40021737          	lui	a4,0x40021
    12bc:	4f1c                	lw	a5,24(a4)
    12be:	8d5d                	or	a0,a0,a5
    12c0:	cf08                	sw	a0,24(a4)
    12c2:	8082                	ret
    12c4:	400217b7          	lui	a5,0x40021
    12c8:	4f98                	lw	a4,24(a5)
    12ca:	fff54513          	not	a0,a0
    12ce:	8d79                	and	a0,a0,a4
    12d0:	cf88                	sw	a0,24(a5)
    12d2:	8082                	ret

000012d4 <RCC_APB2PeriphResetCmd>:
    12d4:	c599                	beqz	a1,12e2 <RCC_APB2PeriphResetCmd+0xe>
    12d6:	40021737          	lui	a4,0x40021
    12da:	475c                	lw	a5,12(a4)
    12dc:	8d5d                	or	a0,a0,a5
    12de:	c748                	sw	a0,12(a4)
    12e0:	8082                	ret
    12e2:	400217b7          	lui	a5,0x40021
    12e6:	47d8                	lw	a4,12(a5)
    12e8:	fff54513          	not	a0,a0
    12ec:	8d79                	and	a0,a0,a4
    12ee:	c7c8                	sw	a0,12(a5)
    12f0:	8082                	ret

000012f2 <TIM_TimeBaseInit>:
    12f2:	211e                	lhu	a5,0(a0)
    12f4:	40013737          	lui	a4,0x40013
    12f8:	c0070713          	addi	a4,a4,-1024 # 40012c00 <_eusrstack+0x2000dc00>
    12fc:	07c2                	slli	a5,a5,0x10
    12fe:	83c1                	srli	a5,a5,0x10
    1300:	00e50663          	beq	a0,a4,130c <TIM_TimeBaseInit+0x1a>
    1304:	40000737          	lui	a4,0x40000
    1308:	00e51663          	bne	a0,a4,1314 <TIM_TimeBaseInit+0x22>
    130c:	21ba                	lhu	a4,2(a1)
    130e:	f8f7f793          	andi	a5,a5,-113
    1312:	8fd9                	or	a5,a5,a4
    1314:	21fa                	lhu	a4,6(a1)
    1316:	cff7f793          	andi	a5,a5,-769
    131a:	07c2                	slli	a5,a5,0x10
    131c:	83c1                	srli	a5,a5,0x10
    131e:	8fd9                	or	a5,a5,a4
    1320:	a11e                	sh	a5,0(a0)
    1322:	21de                	lhu	a5,4(a1)
    1324:	b55e                	sh	a5,44(a0)
    1326:	219e                	lhu	a5,0(a1)
    1328:	b51e                	sh	a5,40(a0)
    132a:	400137b7          	lui	a5,0x40013
    132e:	c0078793          	addi	a5,a5,-1024 # 40012c00 <_eusrstack+0x2000dc00>
    1332:	00f50663          	beq	a0,a5,133e <TIM_TimeBaseInit+0x4c>
    1336:	400007b7          	lui	a5,0x40000
    133a:	00f51463          	bne	a0,a5,1342 <TIM_TimeBaseInit+0x50>
    133e:	259c                	lbu	a5,8(a1)
    1340:	b91e                	sh	a5,48(a0)
    1342:	4785                	li	a5,1
    1344:	a95e                	sh	a5,20(a0)
    1346:	8082                	ret

00001348 <TIM_OC1Init>:
    1348:	311e                	lhu	a5,32(a0)
    134a:	2192                	lhu	a2,0(a1)
    134c:	0025d803          	lhu	a6,2(a1)
    1350:	07c2                	slli	a5,a5,0x10
    1352:	83c1                	srli	a5,a5,0x10
    1354:	9bf9                	andi	a5,a5,-2
    1356:	07c2                	slli	a5,a5,0x10
    1358:	83c1                	srli	a5,a5,0x10
    135a:	b11e                	sh	a5,32(a0)
    135c:	311e                	lhu	a5,32(a0)
    135e:	2156                	lhu	a3,4(a0)
    1360:	2d1a                	lhu	a4,24(a0)
    1362:	07c2                	slli	a5,a5,0x10
    1364:	83c1                	srli	a5,a5,0x10
    1366:	0742                	slli	a4,a4,0x10
    1368:	8341                	srli	a4,a4,0x10
    136a:	f8c77713          	andi	a4,a4,-116
    136e:	8f51                	or	a4,a4,a2
    1370:	2592                	lhu	a2,8(a1)
    1372:	9bf5                	andi	a5,a5,-3
    1374:	06c2                	slli	a3,a3,0x10
    1376:	01066633          	or	a2,a2,a6
    137a:	8fd1                	or	a5,a5,a2
    137c:	40013637          	lui	a2,0x40013
    1380:	c0060613          	addi	a2,a2,-1024 # 40012c00 <_eusrstack+0x2000dc00>
    1384:	82c1                	srli	a3,a3,0x10
    1386:	00c50663          	beq	a0,a2,1392 <TIM_OC1Init+0x4a>
    138a:	40000637          	lui	a2,0x40000
    138e:	02c51063          	bne	a0,a2,13ae <TIM_OC1Init+0x66>
    1392:	25b2                	lhu	a2,10(a1)
    1394:	9bdd                	andi	a5,a5,-9
    1396:	00e5d803          	lhu	a6,14(a1)
    139a:	8fd1                	or	a5,a5,a2
    139c:	21d2                	lhu	a2,4(a1)
    139e:	9bed                	andi	a5,a5,-5
    13a0:	cff6f693          	andi	a3,a3,-769
    13a4:	8fd1                	or	a5,a5,a2
    13a6:	25d2                	lhu	a2,12(a1)
    13a8:	01066633          	or	a2,a2,a6
    13ac:	8ed1                	or	a3,a3,a2
    13ae:	a156                	sh	a3,4(a0)
    13b0:	ad1a                	sh	a4,24(a0)
    13b2:	21fa                	lhu	a4,6(a1)
    13b4:	b95a                	sh	a4,52(a0)
    13b6:	b11e                	sh	a5,32(a0)
    13b8:	8082                	ret

000013ba <TIM_Cmd>:
    13ba:	211e                	lhu	a5,0(a0)
    13bc:	c589                	beqz	a1,13c6 <TIM_Cmd+0xc>
    13be:	0017e793          	ori	a5,a5,1
    13c2:	a11e                	sh	a5,0(a0)
    13c4:	8082                	ret
    13c6:	07c2                	slli	a5,a5,0x10
    13c8:	83c1                	srli	a5,a5,0x10
    13ca:	9bf9                	andi	a5,a5,-2
    13cc:	07c2                	slli	a5,a5,0x10
    13ce:	83c1                	srli	a5,a5,0x10
    13d0:	bfcd                	j	13c2 <TIM_Cmd+0x8>

000013d2 <TIM_CtrlPWMOutputs>:
    13d2:	04455783          	lhu	a5,68(a0)
    13d6:	c591                	beqz	a1,13e2 <TIM_CtrlPWMOutputs+0x10>
    13d8:	6721                	lui	a4,0x8
    13da:	8fd9                	or	a5,a5,a4
    13dc:	04f51223          	sh	a5,68(a0)
    13e0:	8082                	ret
    13e2:	07c6                	slli	a5,a5,0x11
    13e4:	83c5                	srli	a5,a5,0x11
    13e6:	bfdd                	j	13dc <TIM_CtrlPWMOutputs+0xa>

000013e8 <TIM_ARRPreloadConfig>:
    13e8:	211e                	lhu	a5,0(a0)
    13ea:	c589                	beqz	a1,13f4 <TIM_ARRPreloadConfig+0xc>
    13ec:	0807e793          	ori	a5,a5,128
    13f0:	a11e                	sh	a5,0(a0)
    13f2:	8082                	ret
    13f4:	07c2                	slli	a5,a5,0x10
    13f6:	83c1                	srli	a5,a5,0x10
    13f8:	f7f7f793          	andi	a5,a5,-129
    13fc:	07c2                	slli	a5,a5,0x10
    13fe:	83c1                	srli	a5,a5,0x10
    1400:	bfc5                	j	13f0 <TIM_ARRPreloadConfig+0x8>

00001402 <TIM_OC1PreloadConfig>:
    1402:	2d1e                	lhu	a5,24(a0)
    1404:	07c2                	slli	a5,a5,0x10
    1406:	83c1                	srli	a5,a5,0x10
    1408:	9bdd                	andi	a5,a5,-9
    140a:	8ddd                	or	a1,a1,a5
    140c:	ad0e                	sh	a1,24(a0)
    140e:	8082                	ret

00001410 <USART_Init>:
    1410:	d21fe2ef          	jal	t0,130 <__riscv_save_0>
    1414:	2916                	lhu	a3,16(a0)
    1416:	77f5                	lui	a5,0xffffd
    1418:	17fd                	addi	a5,a5,-1
    141a:	8ff5                	and	a5,a5,a3
    141c:	21f6                	lhu	a3,6(a1)
    141e:	25da                	lhu	a4,12(a1)
    1420:	1101                	addi	sp,sp,-32
    1422:	8fd5                	or	a5,a5,a3
    1424:	a91e                	sh	a5,16(a0)
    1426:	2556                	lhu	a3,12(a0)
    1428:	77fd                	lui	a5,0xfffff
    142a:	9f378793          	addi	a5,a5,-1549 # ffffe9f3 <_eusrstack+0xdfff99f3>
    142e:	8ff5                	and	a5,a5,a3
    1430:	21d6                	lhu	a3,4(a1)
    1432:	842a                	mv	s0,a0
    1434:	c62e                	sw	a1,12(sp)
    1436:	8fd5                	or	a5,a5,a3
    1438:	2596                	lhu	a3,8(a1)
    143a:	8fd5                	or	a5,a5,a3
    143c:	25b6                	lhu	a3,10(a1)
    143e:	8fd5                	or	a5,a5,a3
    1440:	a55e                	sh	a5,12(a0)
    1442:	295e                	lhu	a5,20(a0)
    1444:	07c2                	slli	a5,a5,0x10
    1446:	83c1                	srli	a5,a5,0x10
    1448:	cff7f793          	andi	a5,a5,-769
    144c:	8fd9                	or	a5,a5,a4
    144e:	a95e                	sh	a5,20(a0)
    1450:	0808                	addi	a0,sp,16
    1452:	351d                	jal	1278 <RCC_GetClocksFreq>
    1454:	400147b7          	lui	a5,0x40014
    1458:	80078793          	addi	a5,a5,-2048 # 40013800 <_eusrstack+0x2000e800>
    145c:	45b2                	lw	a1,12(sp)
    145e:	02f41e63          	bne	s0,a5,149a <USART_Init+0x8a>
    1462:	47f2                	lw	a5,28(sp)
    1464:	4765                	li	a4,25
    1466:	02e787b3          	mul	a5,a5,a4
    146a:	4198                	lw	a4,0(a1)
    146c:	06400693          	li	a3,100
    1470:	070a                	slli	a4,a4,0x2
    1472:	02e7d7b3          	divu	a5,a5,a4
    1476:	02d7d733          	divu	a4,a5,a3
    147a:	02d7f7b3          	remu	a5,a5,a3
    147e:	0712                	slli	a4,a4,0x4
    1480:	0792                	slli	a5,a5,0x4
    1482:	03278793          	addi	a5,a5,50
    1486:	02d7d7b3          	divu	a5,a5,a3
    148a:	8bbd                	andi	a5,a5,15
    148c:	8fd9                	or	a5,a5,a4
    148e:	07c2                	slli	a5,a5,0x10
    1490:	83c1                	srli	a5,a5,0x10
    1492:	a41e                	sh	a5,8(s0)
    1494:	6105                	addi	sp,sp,32
    1496:	cbffe06f          	j	154 <__riscv_restore_0>
    149a:	47e2                	lw	a5,24(sp)
    149c:	b7e1                	j	1464 <USART_Init+0x54>

0000149e <USART_Cmd>:
    149e:	c591                	beqz	a1,14aa <USART_Cmd+0xc>
    14a0:	255e                	lhu	a5,12(a0)
    14a2:	6709                	lui	a4,0x2
    14a4:	8fd9                	or	a5,a5,a4
    14a6:	a55e                	sh	a5,12(a0)
    14a8:	8082                	ret
    14aa:	255a                	lhu	a4,12(a0)
    14ac:	77f9                	lui	a5,0xffffe
    14ae:	17fd                	addi	a5,a5,-1
    14b0:	8ff9                	and	a5,a5,a4
    14b2:	bfd5                	j	14a6 <USART_Cmd+0x8>

000014b4 <USART_SendData>:
    14b4:	1ff5f593          	andi	a1,a1,511
    14b8:	a14e                	sh	a1,4(a0)
    14ba:	8082                	ret

000014bc <USART_GetFlagStatus>:
    14bc:	210a                	lhu	a0,0(a0)
    14be:	8d6d                	and	a0,a0,a1
    14c0:	00a03533          	snez	a0,a0
    14c4:	8082                	ret

000014c6 <Delay_Init>:
    14c6:	200007b7          	lui	a5,0x20000
    14ca:	1947a783          	lw	a5,404(a5) # 20000194 <SystemCoreClock>
    14ce:	007a1737          	lui	a4,0x7a1
    14d2:	20070713          	addi	a4,a4,512 # 7a1200 <_data_lma+0x79b2b4>
    14d6:	02e7d7b3          	divu	a5,a5,a4
    14da:	0ff7f793          	andi	a5,a5,255
    14de:	82f18723          	sb	a5,-2002(gp) # 200001be <p_us>
    14e2:	3e800713          	li	a4,1000
    14e6:	02e787b3          	mul	a5,a5,a4
    14ea:	82f19623          	sh	a5,-2004(gp) # 200001bc <_edata>
    14ee:	8082                	ret

000014f0 <Delay_Us>:
    14f0:	e000f7b7          	lui	a5,0xe000f
    14f4:	43d8                	lw	a4,4(a5)
    14f6:	4681                	li	a3,0
    14f8:	9b79                	andi	a4,a4,-2
    14fa:	c3d8                	sw	a4,4(a5)
    14fc:	82e1c703          	lbu	a4,-2002(gp) # 200001be <p_us>
    1500:	02a70633          	mul	a2,a4,a0
    1504:	cb90                	sw	a2,16(a5)
    1506:	cbd4                	sw	a3,20(a5)
    1508:	4398                	lw	a4,0(a5)
    150a:	01076713          	ori	a4,a4,16
    150e:	c398                	sw	a4,0(a5)
    1510:	4398                	lw	a4,0(a5)
    1512:	02176713          	ori	a4,a4,33
    1516:	c398                	sw	a4,0(a5)
    1518:	43d8                	lw	a4,4(a5)
    151a:	8b05                	andi	a4,a4,1
    151c:	df75                	beqz	a4,1518 <Delay_Us+0x28>
    151e:	4398                	lw	a4,0(a5)
    1520:	9b79                	andi	a4,a4,-2
    1522:	c398                	sw	a4,0(a5)
    1524:	8082                	ret

00001526 <Delay_Ms>:
    1526:	e000f7b7          	lui	a5,0xe000f
    152a:	43d8                	lw	a4,4(a5)
    152c:	4681                	li	a3,0
    152e:	9b79                	andi	a4,a4,-2
    1530:	c3d8                	sw	a4,4(a5)
    1532:	82c1d703          	lhu	a4,-2004(gp) # 200001bc <_edata>
    1536:	02a70633          	mul	a2,a4,a0
    153a:	cb90                	sw	a2,16(a5)
    153c:	cbd4                	sw	a3,20(a5)
    153e:	4398                	lw	a4,0(a5)
    1540:	01076713          	ori	a4,a4,16
    1544:	c398                	sw	a4,0(a5)
    1546:	4398                	lw	a4,0(a5)
    1548:	02176713          	ori	a4,a4,33
    154c:	c398                	sw	a4,0(a5)
    154e:	43d8                	lw	a4,4(a5)
    1550:	8b05                	andi	a4,a4,1
    1552:	df75                	beqz	a4,154e <Delay_Ms+0x28>
    1554:	4398                	lw	a4,0(a5)
    1556:	9b79                	andi	a4,a4,-2
    1558:	c398                	sw	a4,0(a5)
    155a:	8082                	ret

0000155c <USART_Printf_Init>:
    155c:	bd5fe2ef          	jal	t0,130 <__riscv_save_0>
    1560:	842a                	mv	s0,a0
    1562:	6511                	lui	a0,0x4
    1564:	1101                	addi	sp,sp,-32
    1566:	4585                	li	a1,1
    1568:	0521                	addi	a0,a0,8
    156a:	33b1                	jal	12b6 <RCC_APB2PeriphClockCmd>
    156c:	40000793          	li	a5,1024
    1570:	c23e                	sw	a5,4(sp)
    1572:	40011537          	lui	a0,0x40011
    1576:	4785                	li	a5,1
    1578:	c43e                	sw	a5,8(sp)
    157a:	004c                	addi	a1,sp,4
    157c:	47e1                	li	a5,24
    157e:	c0050513          	addi	a0,a0,-1024 # 40010c00 <_eusrstack+0x2000bc00>
    1582:	c63e                	sw	a5,12(sp)
    1584:	b4bff0ef          	jal	ra,10ce <GPIO_Init>
    1588:	c822                	sw	s0,16(sp)
    158a:	40014437          	lui	s0,0x40014
    158e:	000807b7          	lui	a5,0x80
    1592:	080c                	addi	a1,sp,16
    1594:	80040513          	addi	a0,s0,-2048 # 40013800 <_eusrstack+0x2000e800>
    1598:	cc3e                	sw	a5,24(sp)
    159a:	ca02                	sw	zero,20(sp)
    159c:	00011e23          	sh	zero,28(sp)
    15a0:	3d85                	jal	1410 <USART_Init>
    15a2:	4585                	li	a1,1
    15a4:	80040513          	addi	a0,s0,-2048
    15a8:	3ddd                	jal	149e <USART_Cmd>
    15aa:	6105                	addi	sp,sp,32
    15ac:	ba9fe06f          	j	154 <__riscv_restore_0>

000015b0 <_write>:
    15b0:	b67fe2ef          	jal	t0,116 <__riscv_save_4>
    15b4:	400144b7          	lui	s1,0x40014
    15b8:	89ae                	mv	s3,a1
    15ba:	8932                	mv	s2,a2
    15bc:	4401                	li	s0,0
    15be:	80048493          	addi	s1,s1,-2048 # 40013800 <_eusrstack+0x2000e800>
    15c2:	01244563          	blt	s0,s2,15cc <_write+0x1c>
    15c6:	854a                	mv	a0,s2
    15c8:	b83fe06f          	j	14a <__riscv_restore_4>
    15cc:	04000593          	li	a1,64
    15d0:	8526                	mv	a0,s1
    15d2:	35ed                	jal	14bc <USART_GetFlagStatus>
    15d4:	dd65                	beqz	a0,15cc <_write+0x1c>
    15d6:	008987b3          	add	a5,s3,s0
    15da:	00078583          	lb	a1,0(a5) # 80000 <_data_lma+0x7a0b4>
    15de:	8526                	mv	a0,s1
    15e0:	0405                	addi	s0,s0,1
    15e2:	05c2                	slli	a1,a1,0x10
    15e4:	81c1                	srli	a1,a1,0x10
    15e6:	35f9                	jal	14b4 <USART_SendData>
    15e8:	bfe9                	j	15c2 <_write+0x12>

000015ea <_sbrk>:
    15ea:	81418713          	addi	a4,gp,-2028 # 200001a4 <curbrk.4335>
    15ee:	431c                	lw	a5,0(a4)
    15f0:	83c18693          	addi	a3,gp,-1988 # 200001cc <_ebss>
    15f4:	953e                	add	a0,a0,a5
    15f6:	00d56b63          	bltu	a0,a3,160c <_sbrk+0x22>
    15fa:	200056b7          	lui	a3,0x20005
    15fe:	80068693          	addi	a3,a3,-2048 # 20004800 <_heap_end>
    1602:	00a6e563          	bltu	a3,a0,160c <_sbrk+0x22>
    1606:	c308                	sw	a0,0(a4)
    1608:	853e                	mv	a0,a5
    160a:	8082                	ret
    160c:	57fd                	li	a5,-1
    160e:	bfed                	j	1608 <_sbrk+0x1e>

00001610 <floor>:
    1610:	4145d793          	srai	a5,a1,0x14
    1614:	1101                	addi	sp,sp,-32
    1616:	7ff7f793          	andi	a5,a5,2047
    161a:	cc22                	sw	s0,24(sp)
    161c:	ca26                	sw	s1,20(sp)
    161e:	c84a                	sw	s2,16(sp)
    1620:	c64e                	sw	s3,12(sp)
    1622:	c452                	sw	s4,8(sp)
    1624:	ce06                	sw	ra,28(sp)
    1626:	c256                	sw	s5,4(sp)
    1628:	c05a                	sw	s6,0(sp)
    162a:	c0178493          	addi	s1,a5,-1023
    162e:	474d                	li	a4,19
    1630:	842e                	mv	s0,a1
    1632:	89aa                	mv	s3,a0
    1634:	892e                	mv	s2,a1
    1636:	8a2a                	mv	s4,a0
    1638:	08974863          	blt	a4,s1,16c8 <floor+0xb8>
    163c:	0604c463          	bltz	s1,16a4 <floor+0x94>
    1640:	00100b37          	lui	s6,0x100
    1644:	fffb0a93          	addi	s5,s6,-1 # fffff <_data_lma+0xfa0b3>
    1648:	409adab3          	sra	s5,s5,s1
    164c:	00baf7b3          	and	a5,s5,a1
    1650:	8fc9                	or	a5,a5,a0
    1652:	86aa                	mv	a3,a0
    1654:	872e                	mv	a4,a1
    1656:	cb9d                	beqz	a5,168c <floor+0x7c>
    1658:	00004797          	auipc	a5,0x4
    165c:	58078793          	addi	a5,a5,1408 # 5bd8 <_read+0x110>
    1660:	4390                	lw	a2,0(a5)
    1662:	43d4                	lw	a3,4(a5)
    1664:	2be5                	jal	1c5c <__adddf3>
    1666:	4601                	li	a2,0
    1668:	4681                	li	a3,0
    166a:	340010ef          	jal	ra,29aa <__gedf2>
    166e:	00a05d63          	blez	a0,1688 <floor+0x78>
    1672:	00045663          	bgez	s0,167e <floor+0x6e>
    1676:	409b54b3          	sra	s1,s6,s1
    167a:	00848933          	add	s2,s1,s0
    167e:	fffaca93          	not	s5,s5
    1682:	01597933          	and	s2,s2,s5
    1686:	4a01                	li	s4,0
    1688:	86d2                	mv	a3,s4
    168a:	874a                	mv	a4,s2
    168c:	40f2                	lw	ra,28(sp)
    168e:	4462                	lw	s0,24(sp)
    1690:	44d2                	lw	s1,20(sp)
    1692:	4942                	lw	s2,16(sp)
    1694:	49b2                	lw	s3,12(sp)
    1696:	4a22                	lw	s4,8(sp)
    1698:	4a92                	lw	s5,4(sp)
    169a:	4b02                	lw	s6,0(sp)
    169c:	8536                	mv	a0,a3
    169e:	85ba                	mv	a1,a4
    16a0:	6105                	addi	sp,sp,32
    16a2:	8082                	ret
    16a4:	00004797          	auipc	a5,0x4
    16a8:	53478793          	addi	a5,a5,1332 # 5bd8 <_read+0x110>
    16ac:	4390                	lw	a2,0(a5)
    16ae:	43d4                	lw	a3,4(a5)
    16b0:	2375                	jal	1c5c <__adddf3>
    16b2:	4601                	li	a2,0
    16b4:	4681                	li	a3,0
    16b6:	2f4010ef          	jal	ra,29aa <__gedf2>
    16ba:	fca057e3          	blez	a0,1688 <floor+0x78>
    16be:	06044363          	bltz	s0,1724 <floor+0x114>
    16c2:	4a01                	li	s4,0
    16c4:	4901                	li	s2,0
    16c6:	b7c9                	j	1688 <floor+0x78>
    16c8:	03300713          	li	a4,51
    16cc:	00975e63          	bge	a4,s1,16e8 <floor+0xd8>
    16d0:	40000793          	li	a5,1024
    16d4:	86aa                	mv	a3,a0
    16d6:	872e                	mv	a4,a1
    16d8:	faf49ae3          	bne	s1,a5,168c <floor+0x7c>
    16dc:	86ae                	mv	a3,a1
    16de:	862a                	mv	a2,a0
    16e0:	2bb5                	jal	1c5c <__adddf3>
    16e2:	86aa                	mv	a3,a0
    16e4:	872e                	mv	a4,a1
    16e6:	b75d                	j	168c <floor+0x7c>
    16e8:	bed78793          	addi	a5,a5,-1043
    16ec:	5afd                	li	s5,-1
    16ee:	00fadab3          	srl	s5,s5,a5
    16f2:	00aaf7b3          	and	a5,s5,a0
    16f6:	86aa                	mv	a3,a0
    16f8:	872e                	mv	a4,a1
    16fa:	dbc9                	beqz	a5,168c <floor+0x7c>
    16fc:	00004797          	auipc	a5,0x4
    1700:	4dc78793          	addi	a5,a5,1244 # 5bd8 <_read+0x110>
    1704:	4390                	lw	a2,0(a5)
    1706:	43d4                	lw	a3,4(a5)
    1708:	2b91                	jal	1c5c <__adddf3>
    170a:	4601                	li	a2,0
    170c:	4681                	li	a3,0
    170e:	29c010ef          	jal	ra,29aa <__gedf2>
    1712:	f6a05be3          	blez	a0,1688 <floor+0x78>
    1716:	02044063          	bltz	s0,1736 <floor+0x126>
    171a:	fffac793          	not	a5,s5
    171e:	00fa7a33          	and	s4,s4,a5
    1722:	b79d                	j	1688 <floor+0x78>
    1724:	0406                	slli	s0,s0,0x1
    1726:	8005                	srli	s0,s0,0x1
    1728:	01346433          	or	s0,s0,s3
    172c:	4a01                	li	s4,0
    172e:	dc29                	beqz	s0,1688 <floor+0x78>
    1730:	bff00937          	lui	s2,0xbff00
    1734:	bf91                	j	1688 <floor+0x78>
    1736:	47d1                	li	a5,20
    1738:	00f48f63          	beq	s1,a5,1756 <floor+0x146>
    173c:	03400793          	li	a5,52
    1740:	8f85                	sub	a5,a5,s1
    1742:	4485                	li	s1,1
    1744:	00f494b3          	sll	s1,s1,a5
    1748:	99a6                	add	s3,s3,s1
    174a:	0149f963          	bgeu	s3,s4,175c <floor+0x14c>
    174e:	00140913          	addi	s2,s0,1
    1752:	8a4e                	mv	s4,s3
    1754:	b7d9                	j	171a <floor+0x10a>
    1756:	00140913          	addi	s2,s0,1
    175a:	b7c1                	j	171a <floor+0x10a>
    175c:	8a4e                	mv	s4,s3
    175e:	bf75                	j	171a <floor+0x10a>

00001760 <log>:
    1760:	715d                	addi	sp,sp,-80
    1762:	c4a2                	sw	s0,72(sp)
    1764:	c2a6                	sw	s1,68(sp)
    1766:	c0ca                	sw	s2,64(sp)
    1768:	de52                	sw	s4,60(sp)
    176a:	dc56                	sw	s5,56(sp)
    176c:	c686                	sw	ra,76(sp)
    176e:	842a                	mv	s0,a0
    1770:	84ae                	mv	s1,a1
    1772:	2201                	jal	1872 <__ieee754_log>
    1774:	81818793          	addi	a5,gp,-2024 # 200001a8 <__fdlib_version>
    1778:	0007a903          	lw	s2,0(a5)
    177c:	57fd                	li	a5,-1
    177e:	8a2a                	mv	s4,a0
    1780:	8aae                	mv	s5,a1
    1782:	06f90d63          	beq	s2,a5,17fc <log+0x9c>
    1786:	8622                	mv	a2,s0
    1788:	86a6                	mv	a3,s1
    178a:	8522                	mv	a0,s0
    178c:	85a6                	mv	a1,s1
    178e:	6c1010ef          	jal	ra,364e <__unorddf2>
    1792:	e52d                	bnez	a0,17fc <log+0x9c>
    1794:	4601                	li	a2,0
    1796:	4681                	li	a3,0
    1798:	8522                	mv	a0,s0
    179a:	85a6                	mv	a1,s1
    179c:	20e010ef          	jal	ra,29aa <__gedf2>
    17a0:	04a04e63          	bgtz	a0,17fc <log+0x9c>
    17a4:	00004797          	auipc	a5,0x4
    17a8:	44c78793          	addi	a5,a5,1100 # 5bf0 <_read+0x128>
    17ac:	c63e                	sw	a5,12(sp)
    17ae:	d402                	sw	zero,40(sp)
    17b0:	c822                	sw	s0,16(sp)
    17b2:	ca26                	sw	s1,20(sp)
    17b4:	cc22                	sw	s0,24(sp)
    17b6:	ce26                	sw	s1,28(sp)
    17b8:	04090c63          	beqz	s2,1810 <log+0xb0>
    17bc:	00004797          	auipc	a5,0x4
    17c0:	42478793          	addi	a5,a5,1060 # 5be0 <_read+0x118>
    17c4:	4398                	lw	a4,0(a5)
    17c6:	43dc                	lw	a5,4(a5)
    17c8:	4601                	li	a2,0
    17ca:	4681                	li	a3,0
    17cc:	8522                	mv	a0,s0
    17ce:	85a6                	mv	a1,s1
    17d0:	d03a                	sw	a4,32(sp)
    17d2:	d23e                	sw	a5,36(sp)
    17d4:	16c010ef          	jal	ra,2940 <__eqdf2>
    17d8:	e151                	bnez	a0,185c <log+0xfc>
    17da:	4789                	li	a5,2
    17dc:	c43e                	sw	a5,8(sp)
    17de:	06f91b63          	bne	s2,a5,1854 <log+0xf4>
    17e2:	12e030ef          	jal	ra,4910 <__errno>
    17e6:	02200793          	li	a5,34
    17ea:	c11c                	sw	a5,0(a0)
    17ec:	57a2                	lw	a5,40(sp)
    17ee:	cfb1                	beqz	a5,184a <log+0xea>
    17f0:	120030ef          	jal	ra,4910 <__errno>
    17f4:	57a2                	lw	a5,40(sp)
    17f6:	5a02                	lw	s4,32(sp)
    17f8:	5a92                	lw	s5,36(sp)
    17fa:	c11c                	sw	a5,0(a0)
    17fc:	40b6                	lw	ra,76(sp)
    17fe:	4426                	lw	s0,72(sp)
    1800:	8552                	mv	a0,s4
    1802:	85d6                	mv	a1,s5
    1804:	4496                	lw	s1,68(sp)
    1806:	4906                	lw	s2,64(sp)
    1808:	5a72                	lw	s4,60(sp)
    180a:	5ae2                	lw	s5,56(sp)
    180c:	6161                	addi	sp,sp,80
    180e:	8082                	ret
    1810:	00004797          	auipc	a5,0x4
    1814:	3d878793          	addi	a5,a5,984 # 5be8 <_read+0x120>
    1818:	4398                	lw	a4,0(a5)
    181a:	43dc                	lw	a5,4(a5)
    181c:	4601                	li	a2,0
    181e:	4681                	li	a3,0
    1820:	8522                	mv	a0,s0
    1822:	85a6                	mv	a1,s1
    1824:	d03a                	sw	a4,32(sp)
    1826:	d23e                	sw	a5,36(sp)
    1828:	118010ef          	jal	ra,2940 <__eqdf2>
    182c:	c115                	beqz	a0,1850 <log+0xf0>
    182e:	4785                	li	a5,1
    1830:	c43e                	sw	a5,8(sp)
    1832:	0028                	addi	a0,sp,8
    1834:	2919                	jal	1c4a <matherr>
    1836:	c905                	beqz	a0,1866 <log+0x106>
    1838:	00004517          	auipc	a0,0x4
    183c:	36c50513          	addi	a0,a0,876 # 5ba4 <_read+0xdc>
    1840:	2139                	jal	1c4e <nan>
    1842:	d02a                	sw	a0,32(sp)
    1844:	d22e                	sw	a1,36(sp)
    1846:	57a2                	lw	a5,40(sp)
    1848:	f7c5                	bnez	a5,17f0 <log+0x90>
    184a:	5a02                	lw	s4,32(sp)
    184c:	5a92                	lw	s5,36(sp)
    184e:	b77d                	j	17fc <log+0x9c>
    1850:	4789                	li	a5,2
    1852:	c43e                	sw	a5,8(sp)
    1854:	0028                	addi	a0,sp,8
    1856:	2ed5                	jal	1c4a <matherr>
    1858:	f57d                	bnez	a0,1846 <log+0xe6>
    185a:	b761                	j	17e2 <log+0x82>
    185c:	4785                	li	a5,1
    185e:	c43e                	sw	a5,8(sp)
    1860:	4789                	li	a5,2
    1862:	fcf918e3          	bne	s2,a5,1832 <log+0xd2>
    1866:	0aa030ef          	jal	ra,4910 <__errno>
    186a:	02100793          	li	a5,33
    186e:	c11c                	sw	a5,0(a0)
    1870:	b7e1                	j	1838 <log+0xd8>

00001872 <__ieee754_log>:
    1872:	715d                	addi	sp,sp,-80
    1874:	c686                	sw	ra,76(sp)
    1876:	c4a2                	sw	s0,72(sp)
    1878:	c2a6                	sw	s1,68(sp)
    187a:	c0ca                	sw	s2,64(sp)
    187c:	de4e                	sw	s3,60(sp)
    187e:	dc52                	sw	s4,56(sp)
    1880:	da56                	sw	s5,52(sp)
    1882:	d85a                	sw	s6,48(sp)
    1884:	d65e                	sw	s7,44(sp)
    1886:	d462                	sw	s8,40(sp)
    1888:	d266                	sw	s9,36(sp)
    188a:	d06a                	sw	s10,32(sp)
    188c:	ce6e                	sw	s11,28(sp)
    188e:	00100837          	lui	a6,0x100
    1892:	872e                	mv	a4,a1
    1894:	86aa                	mv	a3,a0
    1896:	1305de63          	bge	a1,a6,19d2 <__ieee754_log+0x160>
    189a:	00159793          	slli	a5,a1,0x1
    189e:	8385                	srli	a5,a5,0x1
    18a0:	8fc9                	or	a5,a5,a0
    18a2:	2c078163          	beqz	a5,1b64 <__ieee754_log+0x2f2>
    18a6:	3405cb63          	bltz	a1,1bfc <__ieee754_log+0x38a>
    18aa:	00004797          	auipc	a5,0x4
    18ae:	35678793          	addi	a5,a5,854 # 5c00 <_read+0x138>
    18b2:	4390                	lw	a2,0(a5)
    18b4:	43d4                	lw	a3,4(a5)
    18b6:	1a2010ef          	jal	ra,2a58 <__muldf3>
    18ba:	87ae                	mv	a5,a1
    18bc:	7ff00637          	lui	a2,0x7ff00
    18c0:	86aa                	mv	a3,a0
    18c2:	872e                	mv	a4,a1
    18c4:	fca00513          	li	a0,-54
    18c8:	10c7db63          	bge	a5,a2,19de <__ieee754_log+0x16c>
    18cc:	00100637          	lui	a2,0x100
    18d0:	fff60913          	addi	s2,a2,-1 # fffff <_data_lma+0xfa0b3>
    18d4:	00096737          	lui	a4,0x96
    18d8:	0127fcb3          	and	s9,a5,s2
    18dc:	f6470713          	addi	a4,a4,-156 # 95f64 <_data_lma+0x90018>
    18e0:	9766                	add	a4,a4,s9
    18e2:	8f71                	and	a4,a4,a2
    18e4:	85b6                	mv	a1,a3
    18e6:	3ff00837          	lui	a6,0x3ff00
    18ea:	00004697          	auipc	a3,0x4
    18ee:	20e68693          	addi	a3,a3,526 # 5af8 <_read+0x30>
    18f2:	01074833          	xor	a6,a4,a6
    18f6:	4290                	lw	a2,0(a3)
    18f8:	87d1                	srai	a5,a5,0x14
    18fa:	42d4                	lw	a3,4(a3)
    18fc:	01986833          	or	a6,a6,s9
    1900:	c0178793          	addi	a5,a5,-1023
    1904:	97aa                	add	a5,a5,a0
    1906:	8751                	srai	a4,a4,0x14
    1908:	852e                	mv	a0,a1
    190a:	85c2                	mv	a1,a6
    190c:	00f70c33          	add	s8,a4,a5
    1910:	600010ef          	jal	ra,2f10 <__subdf3>
    1914:	002c8793          	addi	a5,s9,2
    1918:	0127f7b3          	and	a5,a5,s2
    191c:	4709                	li	a4,2
    191e:	842a                	mv	s0,a0
    1920:	84ae                	mv	s1,a1
    1922:	0ef74263          	blt	a4,a5,1a06 <__ieee754_log+0x194>
    1926:	4601                	li	a2,0
    1928:	4681                	li	a3,0
    192a:	016010ef          	jal	ra,2940 <__eqdf2>
    192e:	24050663          	beqz	a0,1b7a <__ieee754_log+0x308>
    1932:	00004797          	auipc	a5,0x4
    1936:	2e678793          	addi	a5,a5,742 # 5c18 <_read+0x150>
    193a:	4390                	lw	a2,0(a5)
    193c:	43d4                	lw	a3,4(a5)
    193e:	8522                	mv	a0,s0
    1940:	85a6                	mv	a1,s1
    1942:	116010ef          	jal	ra,2a58 <__muldf3>
    1946:	00004797          	auipc	a5,0x4
    194a:	2da78793          	addi	a5,a5,730 # 5c20 <_read+0x158>
    194e:	862a                	mv	a2,a0
    1950:	86ae                	mv	a3,a1
    1952:	4388                	lw	a0,0(a5)
    1954:	43cc                	lw	a1,4(a5)
    1956:	5ba010ef          	jal	ra,2f10 <__subdf3>
    195a:	892a                	mv	s2,a0
    195c:	89ae                	mv	s3,a1
    195e:	8622                	mv	a2,s0
    1960:	86a6                	mv	a3,s1
    1962:	8522                	mv	a0,s0
    1964:	85a6                	mv	a1,s1
    1966:	0f2010ef          	jal	ra,2a58 <__muldf3>
    196a:	862a                	mv	a2,a0
    196c:	86ae                	mv	a3,a1
    196e:	854a                	mv	a0,s2
    1970:	85ce                	mv	a1,s3
    1972:	0e6010ef          	jal	ra,2a58 <__muldf3>
    1976:	892a                	mv	s2,a0
    1978:	89ae                	mv	s3,a1
    197a:	260c0a63          	beqz	s8,1bee <__ieee754_log+0x37c>
    197e:	8562                	mv	a0,s8
    1980:	567010ef          	jal	ra,36e6 <__floatsidf>
    1984:	00004797          	auipc	a5,0x4
    1988:	28478793          	addi	a5,a5,644 # 5c08 <_read+0x140>
    198c:	4390                	lw	a2,0(a5)
    198e:	43d4                	lw	a3,4(a5)
    1990:	8b2a                	mv	s6,a0
    1992:	8bae                	mv	s7,a1
    1994:	0c4010ef          	jal	ra,2a58 <__muldf3>
    1998:	00004797          	auipc	a5,0x4
    199c:	27878793          	addi	a5,a5,632 # 5c10 <_read+0x148>
    19a0:	4390                	lw	a2,0(a5)
    19a2:	43d4                	lw	a3,4(a5)
    19a4:	8a2a                	mv	s4,a0
    19a6:	8aae                	mv	s5,a1
    19a8:	855a                	mv	a0,s6
    19aa:	85de                	mv	a1,s7
    19ac:	0ac010ef          	jal	ra,2a58 <__muldf3>
    19b0:	862a                	mv	a2,a0
    19b2:	86ae                	mv	a3,a1
    19b4:	854a                	mv	a0,s2
    19b6:	85ce                	mv	a1,s3
    19b8:	558010ef          	jal	ra,2f10 <__subdf3>
    19bc:	8622                	mv	a2,s0
    19be:	86a6                	mv	a3,s1
    19c0:	550010ef          	jal	ra,2f10 <__subdf3>
    19c4:	862a                	mv	a2,a0
    19c6:	86ae                	mv	a3,a1
    19c8:	8552                	mv	a0,s4
    19ca:	85d6                	mv	a1,s5
    19cc:	544010ef          	jal	ra,2f10 <__subdf3>
    19d0:	a821                	j	19e8 <__ieee754_log+0x176>
    19d2:	87ae                	mv	a5,a1
    19d4:	7ff00637          	lui	a2,0x7ff00
    19d8:	4501                	li	a0,0
    19da:	eec7c9e3          	blt	a5,a2,18cc <__ieee754_log+0x5a>
    19de:	8536                	mv	a0,a3
    19e0:	8636                	mv	a2,a3
    19e2:	85ba                	mv	a1,a4
    19e4:	86ba                	mv	a3,a4
    19e6:	2c9d                	jal	1c5c <__adddf3>
    19e8:	40b6                	lw	ra,76(sp)
    19ea:	4426                	lw	s0,72(sp)
    19ec:	4496                	lw	s1,68(sp)
    19ee:	4906                	lw	s2,64(sp)
    19f0:	59f2                	lw	s3,60(sp)
    19f2:	5a62                	lw	s4,56(sp)
    19f4:	5ad2                	lw	s5,52(sp)
    19f6:	5b42                	lw	s6,48(sp)
    19f8:	5bb2                	lw	s7,44(sp)
    19fa:	5c22                	lw	s8,40(sp)
    19fc:	5c92                	lw	s9,36(sp)
    19fe:	5d02                	lw	s10,32(sp)
    1a00:	4df2                	lw	s11,28(sp)
    1a02:	6161                	addi	sp,sp,80
    1a04:	8082                	ret
    1a06:	00004797          	auipc	a5,0x4
    1a0a:	22278793          	addi	a5,a5,546 # 5c28 <_read+0x160>
    1a0e:	4390                	lw	a2,0(a5)
    1a10:	43d4                	lw	a3,4(a5)
    1a12:	24a9                	jal	1c5c <__adddf3>
    1a14:	862a                	mv	a2,a0
    1a16:	86ae                	mv	a3,a1
    1a18:	8522                	mv	a0,s0
    1a1a:	85a6                	mv	a1,s1
    1a1c:	171000ef          	jal	ra,238c <__divdf3>
    1a20:	8a2a                	mv	s4,a0
    1a22:	8562                	mv	a0,s8
    1a24:	8aae                	mv	s5,a1
    1a26:	4c1010ef          	jal	ra,36e6 <__floatsidf>
    1a2a:	8652                	mv	a2,s4
    1a2c:	86d6                	mv	a3,s5
    1a2e:	8b2a                	mv	s6,a0
    1a30:	8bae                	mv	s7,a1
    1a32:	8552                	mv	a0,s4
    1a34:	85d6                	mv	a1,s5
    1a36:	022010ef          	jal	ra,2a58 <__muldf3>
    1a3a:	fff9f737          	lui	a4,0xfff9f
    1a3e:	b8670713          	addi	a4,a4,-1146 # fff9eb86 <_eusrstack+0xdff99b86>
    1a42:	9766                	add	a4,a4,s9
    1a44:	862a                	mv	a2,a0
    1a46:	86ae                	mv	a3,a1
    1a48:	c63a                	sw	a4,12(sp)
    1a4a:	8d2a                	mv	s10,a0
    1a4c:	8dae                	mv	s11,a1
    1a4e:	00a010ef          	jal	ra,2a58 <__muldf3>
    1a52:	00004797          	auipc	a5,0x4
    1a56:	1de78793          	addi	a5,a5,478 # 5c30 <_read+0x168>
    1a5a:	4390                	lw	a2,0(a5)
    1a5c:	43d4                	lw	a3,4(a5)
    1a5e:	892a                	mv	s2,a0
    1a60:	89ae                	mv	s3,a1
    1a62:	7f7000ef          	jal	ra,2a58 <__muldf3>
    1a66:	00004797          	auipc	a5,0x4
    1a6a:	1d278793          	addi	a5,a5,466 # 5c38 <_read+0x170>
    1a6e:	4390                	lw	a2,0(a5)
    1a70:	43d4                	lw	a3,4(a5)
    1a72:	22ed                	jal	1c5c <__adddf3>
    1a74:	864a                	mv	a2,s2
    1a76:	86ce                	mv	a3,s3
    1a78:	7e1000ef          	jal	ra,2a58 <__muldf3>
    1a7c:	00004797          	auipc	a5,0x4
    1a80:	1c478793          	addi	a5,a5,452 # 5c40 <_read+0x178>
    1a84:	4390                	lw	a2,0(a5)
    1a86:	43d4                	lw	a3,4(a5)
    1a88:	2ad1                	jal	1c5c <__adddf3>
    1a8a:	864a                	mv	a2,s2
    1a8c:	86ce                	mv	a3,s3
    1a8e:	7cb000ef          	jal	ra,2a58 <__muldf3>
    1a92:	00004797          	auipc	a5,0x4
    1a96:	1b678793          	addi	a5,a5,438 # 5c48 <_read+0x180>
    1a9a:	4390                	lw	a2,0(a5)
    1a9c:	43d4                	lw	a3,4(a5)
    1a9e:	2a7d                	jal	1c5c <__adddf3>
    1aa0:	866a                	mv	a2,s10
    1aa2:	86ee                	mv	a3,s11
    1aa4:	7b5000ef          	jal	ra,2a58 <__muldf3>
    1aa8:	00004797          	auipc	a5,0x4
    1aac:	1a878793          	addi	a5,a5,424 # 5c50 <_read+0x188>
    1ab0:	4390                	lw	a2,0(a5)
    1ab2:	43d4                	lw	a3,4(a5)
    1ab4:	8d2a                	mv	s10,a0
    1ab6:	8dae                	mv	s11,a1
    1ab8:	854a                	mv	a0,s2
    1aba:	85ce                	mv	a1,s3
    1abc:	79d000ef          	jal	ra,2a58 <__muldf3>
    1ac0:	00004797          	auipc	a5,0x4
    1ac4:	19878793          	addi	a5,a5,408 # 5c58 <_read+0x190>
    1ac8:	4390                	lw	a2,0(a5)
    1aca:	43d4                	lw	a3,4(a5)
    1acc:	2a41                	jal	1c5c <__adddf3>
    1ace:	864a                	mv	a2,s2
    1ad0:	86ce                	mv	a3,s3
    1ad2:	787000ef          	jal	ra,2a58 <__muldf3>
    1ad6:	00004797          	auipc	a5,0x4
    1ada:	18a78793          	addi	a5,a5,394 # 5c60 <_read+0x198>
    1ade:	4390                	lw	a2,0(a5)
    1ae0:	43d4                	lw	a3,4(a5)
    1ae2:	2aad                	jal	1c5c <__adddf3>
    1ae4:	864a                	mv	a2,s2
    1ae6:	86ce                	mv	a3,s3
    1ae8:	771000ef          	jal	ra,2a58 <__muldf3>
    1aec:	862a                	mv	a2,a0
    1aee:	86ae                	mv	a3,a1
    1af0:	856a                	mv	a0,s10
    1af2:	85ee                	mv	a1,s11
    1af4:	22a5                	jal	1c5c <__adddf3>
    1af6:	0006c7b7          	lui	a5,0x6c
    1afa:	4732                	lw	a4,12(sp)
    1afc:	85178793          	addi	a5,a5,-1967 # 6b851 <_data_lma+0x65905>
    1b00:	41978cb3          	sub	s9,a5,s9
    1b04:	00ececb3          	or	s9,s9,a4
    1b08:	892a                	mv	s2,a0
    1b0a:	89ae                	mv	s3,a1
    1b0c:	0b905a63          	blez	s9,1bc0 <__ieee754_log+0x34e>
    1b10:	00004797          	auipc	a5,0x4
    1b14:	11078793          	addi	a5,a5,272 # 5c20 <_read+0x158>
    1b18:	4390                	lw	a2,0(a5)
    1b1a:	43d4                	lw	a3,4(a5)
    1b1c:	8522                	mv	a0,s0
    1b1e:	85a6                	mv	a1,s1
    1b20:	739000ef          	jal	ra,2a58 <__muldf3>
    1b24:	8622                	mv	a2,s0
    1b26:	86a6                	mv	a3,s1
    1b28:	731000ef          	jal	ra,2a58 <__muldf3>
    1b2c:	862a                	mv	a2,a0
    1b2e:	86ae                	mv	a3,a1
    1b30:	8d2a                	mv	s10,a0
    1b32:	8dae                	mv	s11,a1
    1b34:	854a                	mv	a0,s2
    1b36:	85ce                	mv	a1,s3
    1b38:	2215                	jal	1c5c <__adddf3>
    1b3a:	8652                	mv	a2,s4
    1b3c:	86d6                	mv	a3,s5
    1b3e:	71b000ef          	jal	ra,2a58 <__muldf3>
    1b42:	892a                	mv	s2,a0
    1b44:	89ae                	mv	s3,a1
    1b46:	0c0c1463          	bnez	s8,1c0e <__ieee754_log+0x39c>
    1b4a:	862a                	mv	a2,a0
    1b4c:	86ae                	mv	a3,a1
    1b4e:	856a                	mv	a0,s10
    1b50:	85ee                	mv	a1,s11
    1b52:	3be010ef          	jal	ra,2f10 <__subdf3>
    1b56:	862a                	mv	a2,a0
    1b58:	86ae                	mv	a3,a1
    1b5a:	8522                	mv	a0,s0
    1b5c:	85a6                	mv	a1,s1
    1b5e:	3b2010ef          	jal	ra,2f10 <__subdf3>
    1b62:	b559                	j	19e8 <__ieee754_log+0x176>
    1b64:	00004797          	auipc	a5,0x4
    1b68:	09478793          	addi	a5,a5,148 # 5bf8 <_read+0x130>
    1b6c:	4388                	lw	a0,0(a5)
    1b6e:	43cc                	lw	a1,4(a5)
    1b70:	4601                	li	a2,0
    1b72:	4681                	li	a3,0
    1b74:	019000ef          	jal	ra,238c <__divdf3>
    1b78:	bd85                	j	19e8 <__ieee754_log+0x176>
    1b7a:	4501                	li	a0,0
    1b7c:	4581                	li	a1,0
    1b7e:	e60c05e3          	beqz	s8,19e8 <__ieee754_log+0x176>
    1b82:	8562                	mv	a0,s8
    1b84:	363010ef          	jal	ra,36e6 <__floatsidf>
    1b88:	00004797          	auipc	a5,0x4
    1b8c:	08078793          	addi	a5,a5,128 # 5c08 <_read+0x140>
    1b90:	4390                	lw	a2,0(a5)
    1b92:	43d4                	lw	a3,4(a5)
    1b94:	892a                	mv	s2,a0
    1b96:	89ae                	mv	s3,a1
    1b98:	6c1000ef          	jal	ra,2a58 <__muldf3>
    1b9c:	00004797          	auipc	a5,0x4
    1ba0:	07478793          	addi	a5,a5,116 # 5c10 <_read+0x148>
    1ba4:	4390                	lw	a2,0(a5)
    1ba6:	43d4                	lw	a3,4(a5)
    1ba8:	842a                	mv	s0,a0
    1baa:	84ae                	mv	s1,a1
    1bac:	854a                	mv	a0,s2
    1bae:	85ce                	mv	a1,s3
    1bb0:	6a9000ef          	jal	ra,2a58 <__muldf3>
    1bb4:	862a                	mv	a2,a0
    1bb6:	86ae                	mv	a3,a1
    1bb8:	8522                	mv	a0,s0
    1bba:	85a6                	mv	a1,s1
    1bbc:	2045                	jal	1c5c <__adddf3>
    1bbe:	b52d                	j	19e8 <__ieee754_log+0x176>
    1bc0:	862a                	mv	a2,a0
    1bc2:	86ae                	mv	a3,a1
    1bc4:	8522                	mv	a0,s0
    1bc6:	85a6                	mv	a1,s1
    1bc8:	348010ef          	jal	ra,2f10 <__subdf3>
    1bcc:	8652                	mv	a2,s4
    1bce:	86d6                	mv	a3,s5
    1bd0:	689000ef          	jal	ra,2a58 <__muldf3>
    1bd4:	892a                	mv	s2,a0
    1bd6:	89ae                	mv	s3,a1
    1bd8:	000c0b63          	beqz	s8,1bee <__ieee754_log+0x37c>
    1bdc:	00004797          	auipc	a5,0x4
    1be0:	02c78793          	addi	a5,a5,44 # 5c08 <_read+0x140>
    1be4:	4390                	lw	a2,0(a5)
    1be6:	43d4                	lw	a3,4(a5)
    1be8:	855a                	mv	a0,s6
    1bea:	85de                	mv	a1,s7
    1bec:	b365                	j	1994 <__ieee754_log+0x122>
    1bee:	864a                	mv	a2,s2
    1bf0:	86ce                	mv	a3,s3
    1bf2:	8522                	mv	a0,s0
    1bf4:	85a6                	mv	a1,s1
    1bf6:	31a010ef          	jal	ra,2f10 <__subdf3>
    1bfa:	b3fd                	j	19e8 <__ieee754_log+0x176>
    1bfc:	862a                	mv	a2,a0
    1bfe:	86ae                	mv	a3,a1
    1c00:	310010ef          	jal	ra,2f10 <__subdf3>
    1c04:	4601                	li	a2,0
    1c06:	4681                	li	a3,0
    1c08:	784000ef          	jal	ra,238c <__divdf3>
    1c0c:	bbf1                	j	19e8 <__ieee754_log+0x176>
    1c0e:	00004797          	auipc	a5,0x4
    1c12:	ffa78793          	addi	a5,a5,-6 # 5c08 <_read+0x140>
    1c16:	4390                	lw	a2,0(a5)
    1c18:	43d4                	lw	a3,4(a5)
    1c1a:	855a                	mv	a0,s6
    1c1c:	85de                	mv	a1,s7
    1c1e:	63b000ef          	jal	ra,2a58 <__muldf3>
    1c22:	00004797          	auipc	a5,0x4
    1c26:	fee78793          	addi	a5,a5,-18 # 5c10 <_read+0x148>
    1c2a:	4390                	lw	a2,0(a5)
    1c2c:	43d4                	lw	a3,4(a5)
    1c2e:	8a2a                	mv	s4,a0
    1c30:	8aae                	mv	s5,a1
    1c32:	855a                	mv	a0,s6
    1c34:	85de                	mv	a1,s7
    1c36:	623000ef          	jal	ra,2a58 <__muldf3>
    1c3a:	864a                	mv	a2,s2
    1c3c:	86ce                	mv	a3,s3
    1c3e:	2839                	jal	1c5c <__adddf3>
    1c40:	862a                	mv	a2,a0
    1c42:	86ae                	mv	a3,a1
    1c44:	856a                	mv	a0,s10
    1c46:	85ee                	mv	a1,s11
    1c48:	bb85                	j	19b8 <__ieee754_log+0x146>

00001c4a <matherr>:
    1c4a:	4501                	li	a0,0
    1c4c:	8082                	ret

00001c4e <nan>:
    1c4e:	00004797          	auipc	a5,0x4
    1c52:	01a78793          	addi	a5,a5,26 # 5c68 <_read+0x1a0>
    1c56:	4388                	lw	a0,0(a5)
    1c58:	43cc                	lw	a1,4(a5)
    1c5a:	8082                	ret

00001c5c <__adddf3>:
    1c5c:	00100837          	lui	a6,0x100
    1c60:	1101                	addi	sp,sp,-32
    1c62:	187d                	addi	a6,a6,-1
    1c64:	00b87733          	and	a4,a6,a1
    1c68:	ca26                	sw	s1,20(sp)
    1c6a:	00d87833          	and	a6,a6,a3
    1c6e:	0145d493          	srli	s1,a1,0x14
    1c72:	0146d313          	srli	t1,a3,0x14
    1c76:	00371e13          	slli	t3,a4,0x3
    1c7a:	c64e                	sw	s3,12(sp)
    1c7c:	01d55713          	srli	a4,a0,0x1d
    1c80:	080e                	slli	a6,a6,0x3
    1c82:	01d65793          	srli	a5,a2,0x1d
    1c86:	7ff4f493          	andi	s1,s1,2047
    1c8a:	7ff37313          	andi	t1,t1,2047
    1c8e:	ce06                	sw	ra,28(sp)
    1c90:	cc22                	sw	s0,24(sp)
    1c92:	c84a                	sw	s2,16(sp)
    1c94:	01f5d993          	srli	s3,a1,0x1f
    1c98:	01f6de93          	srli	t4,a3,0x1f
    1c9c:	01c76733          	or	a4,a4,t3
    1ca0:	00351f13          	slli	t5,a0,0x3
    1ca4:	0107e833          	or	a6,a5,a6
    1ca8:	00361f93          	slli	t6,a2,0x3
    1cac:	40648e33          	sub	t3,s1,t1
    1cb0:	19d98063          	beq	s3,t4,1e30 <__adddf3+0x1d4>
    1cb4:	13c05663          	blez	t3,1de0 <__adddf3+0x184>
    1cb8:	1c030463          	beqz	t1,1e80 <__adddf3+0x224>
    1cbc:	008006b7          	lui	a3,0x800
    1cc0:	7ff00793          	li	a5,2047
    1cc4:	00d86833          	or	a6,a6,a3
    1cc8:	36f48f63          	beq	s1,a5,2046 <__adddf3+0x3ea>
    1ccc:	03800793          	li	a5,56
    1cd0:	35c7c063          	blt	a5,t3,2010 <__adddf3+0x3b4>
    1cd4:	47fd                	li	a5,31
    1cd6:	47c7cd63          	blt	a5,t3,2150 <__adddf3+0x4f4>
    1cda:	02000513          	li	a0,32
    1cde:	41c50533          	sub	a0,a0,t3
    1ce2:	01cfd7b3          	srl	a5,t6,t3
    1ce6:	00a816b3          	sll	a3,a6,a0
    1cea:	00af9933          	sll	s2,t6,a0
    1cee:	8edd                	or	a3,a3,a5
    1cf0:	01203933          	snez	s2,s2
    1cf4:	01c857b3          	srl	a5,a6,t3
    1cf8:	0126e933          	or	s2,a3,s2
    1cfc:	8f1d                	sub	a4,a4,a5
    1cfe:	412f0933          	sub	s2,t5,s2
    1d02:	012f37b3          	sltu	a5,t5,s2
    1d06:	40f70633          	sub	a2,a4,a5
    1d0a:	00861793          	slli	a5,a2,0x8
    1d0e:	2407d463          	bgez	a5,1f56 <__adddf3+0x2fa>
    1d12:	00800737          	lui	a4,0x800
    1d16:	177d                	addi	a4,a4,-1
    1d18:	00e67433          	and	s0,a2,a4
    1d1c:	2c040c63          	beqz	s0,1ff4 <__adddf3+0x398>
    1d20:	8522                	mv	a0,s0
    1d22:	381020ef          	jal	ra,48a2 <__clzsi2>
    1d26:	ff850713          	addi	a4,a0,-8
    1d2a:	02000793          	li	a5,32
    1d2e:	8f99                	sub	a5,a5,a4
    1d30:	00f957b3          	srl	a5,s2,a5
    1d34:	00e41633          	sll	a2,s0,a4
    1d38:	8fd1                	or	a5,a5,a2
    1d3a:	00e91933          	sll	s2,s2,a4
    1d3e:	2a974163          	blt	a4,s1,1fe0 <__adddf3+0x384>
    1d42:	40970533          	sub	a0,a4,s1
    1d46:	00150613          	addi	a2,a0,1
    1d4a:	477d                	li	a4,31
    1d4c:	38c74d63          	blt	a4,a2,20e6 <__adddf3+0x48a>
    1d50:	02000713          	li	a4,32
    1d54:	8f11                	sub	a4,a4,a2
    1d56:	00c956b3          	srl	a3,s2,a2
    1d5a:	00e91933          	sll	s2,s2,a4
    1d5e:	00e79733          	sll	a4,a5,a4
    1d62:	8f55                	or	a4,a4,a3
    1d64:	01203933          	snez	s2,s2
    1d68:	01276933          	or	s2,a4,s2
    1d6c:	00c7d633          	srl	a2,a5,a2
    1d70:	4481                	li	s1,0
    1d72:	00797793          	andi	a5,s2,7
    1d76:	cf81                	beqz	a5,1d8e <__adddf3+0x132>
    1d78:	00f97713          	andi	a4,s2,15
    1d7c:	4791                	li	a5,4
    1d7e:	00f70863          	beq	a4,a5,1d8e <__adddf3+0x132>
    1d82:	00490713          	addi	a4,s2,4 # bff00004 <_eusrstack+0x9fefb004>
    1d86:	01273933          	sltu	s2,a4,s2
    1d8a:	964a                	add	a2,a2,s2
    1d8c:	893a                	mv	s2,a4
    1d8e:	00861793          	slli	a5,a2,0x8
    1d92:	1c07d663          	bgez	a5,1f5e <__adddf3+0x302>
    1d96:	00148513          	addi	a0,s1,1
    1d9a:	7ff00793          	li	a5,2047
    1d9e:	85ce                	mv	a1,s3
    1da0:	20f50463          	beq	a0,a5,1fa8 <__adddf3+0x34c>
    1da4:	ff8007b7          	lui	a5,0xff800
    1da8:	17fd                	addi	a5,a5,-1
    1daa:	8ff1                	and	a5,a5,a2
    1dac:	01d79893          	slli	a7,a5,0x1d
    1db0:	00395913          	srli	s2,s2,0x3
    1db4:	07a6                	slli	a5,a5,0x9
    1db6:	0128e8b3          	or	a7,a7,s2
    1dba:	83b1                	srli	a5,a5,0xc
    1dbc:	7ff57513          	andi	a0,a0,2047
    1dc0:	00c79693          	slli	a3,a5,0xc
    1dc4:	0552                	slli	a0,a0,0x14
    1dc6:	40f2                	lw	ra,28(sp)
    1dc8:	4462                	lw	s0,24(sp)
    1dca:	82b1                	srli	a3,a3,0xc
    1dcc:	05fe                	slli	a1,a1,0x1f
    1dce:	8ec9                	or	a3,a3,a0
    1dd0:	8ecd                	or	a3,a3,a1
    1dd2:	44d2                	lw	s1,20(sp)
    1dd4:	4942                	lw	s2,16(sp)
    1dd6:	49b2                	lw	s3,12(sp)
    1dd8:	8546                	mv	a0,a7
    1dda:	85b6                	mv	a1,a3
    1ddc:	6105                	addi	sp,sp,32
    1dde:	8082                	ret
    1de0:	0a0e1e63          	bnez	t3,1e9c <__adddf3+0x240>
    1de4:	00148313          	addi	t1,s1,1
    1de8:	7fe37313          	andi	t1,t1,2046
    1dec:	22031763          	bnez	t1,201a <__adddf3+0x3be>
    1df0:	01e767b3          	or	a5,a4,t5
    1df4:	01f868b3          	or	a7,a6,t6
    1df8:	1a049d63          	bnez	s1,1fb2 <__adddf3+0x356>
    1dfc:	40078763          	beqz	a5,220a <__adddf3+0x5ae>
    1e00:	44088663          	beqz	a7,224c <__adddf3+0x5f0>
    1e04:	41ff0933          	sub	s2,t5,t6
    1e08:	410707b3          	sub	a5,a4,a6
    1e0c:	012f3633          	sltu	a2,t5,s2
    1e10:	40c78633          	sub	a2,a5,a2
    1e14:	00861793          	slli	a5,a2,0x8
    1e18:	4c07d663          	bgez	a5,22e4 <__adddf3+0x688>
    1e1c:	41ef8933          	sub	s2,t6,t5
    1e20:	40e807b3          	sub	a5,a6,a4
    1e24:	012fb633          	sltu	a2,t6,s2
    1e28:	40c78633          	sub	a2,a5,a2
    1e2c:	89f6                	mv	s3,t4
    1e2e:	b791                	j	1d72 <__adddf3+0x116>
    1e30:	0fc05063          	blez	t3,1f10 <__adddf3+0x2b4>
    1e34:	0c030063          	beqz	t1,1ef4 <__adddf3+0x298>
    1e38:	008006b7          	lui	a3,0x800
    1e3c:	7ff00793          	li	a5,2047
    1e40:	00d86833          	or	a6,a6,a3
    1e44:	3af48a63          	beq	s1,a5,21f8 <__adddf3+0x59c>
    1e48:	03800793          	li	a5,56
    1e4c:	13c7cb63          	blt	a5,t3,1f82 <__adddf3+0x326>
    1e50:	47fd                	li	a5,31
    1e52:	35c7df63          	bge	a5,t3,21b0 <__adddf3+0x554>
    1e56:	fe0e0913          	addi	s2,t3,-32 # 3ffe0 <_data_lma+0x3a094>
    1e5a:	02000793          	li	a5,32
    1e5e:	012856b3          	srl	a3,a6,s2
    1e62:	00fe0a63          	beq	t3,a5,1e76 <__adddf3+0x21a>
    1e66:	04000913          	li	s2,64
    1e6a:	41c90933          	sub	s2,s2,t3
    1e6e:	01281933          	sll	s2,a6,s2
    1e72:	012fefb3          	or	t6,t6,s2
    1e76:	01f03933          	snez	s2,t6
    1e7a:	00d96933          	or	s2,s2,a3
    1e7e:	a231                	j	1f8a <__adddf3+0x32e>
    1e80:	01f867b3          	or	a5,a6,t6
    1e84:	1c078a63          	beqz	a5,2058 <__adddf3+0x3fc>
    1e88:	fffe0793          	addi	a5,t3,-1
    1e8c:	38078c63          	beqz	a5,2224 <__adddf3+0x5c8>
    1e90:	7ff00693          	li	a3,2047
    1e94:	1ade0963          	beq	t3,a3,2046 <__adddf3+0x3ea>
    1e98:	8e3e                	mv	t3,a5
    1e9a:	bd0d                	j	1ccc <__adddf3+0x70>
    1e9c:	409305b3          	sub	a1,t1,s1
    1ea0:	22049163          	bnez	s1,20c2 <__adddf3+0x466>
    1ea4:	01e767b3          	or	a5,a4,t5
    1ea8:	32078763          	beqz	a5,21d6 <__adddf3+0x57a>
    1eac:	fff58793          	addi	a5,a1,-1
    1eb0:	44078163          	beqz	a5,22f2 <__adddf3+0x696>
    1eb4:	7ff00693          	li	a3,2047
    1eb8:	20d58c63          	beq	a1,a3,20d0 <__adddf3+0x474>
    1ebc:	85be                	mv	a1,a5
    1ebe:	03800793          	li	a5,56
    1ec2:	2ab7cc63          	blt	a5,a1,217a <__adddf3+0x51e>
    1ec6:	47fd                	li	a5,31
    1ec8:	3cb7cf63          	blt	a5,a1,22a6 <__adddf3+0x64a>
    1ecc:	02000793          	li	a5,32
    1ed0:	8f8d                	sub	a5,a5,a1
    1ed2:	00f71933          	sll	s2,a4,a5
    1ed6:	00bf56b3          	srl	a3,t5,a1
    1eda:	00ff17b3          	sll	a5,t5,a5
    1ede:	00d96933          	or	s2,s2,a3
    1ee2:	00f037b3          	snez	a5,a5
    1ee6:	00b75733          	srl	a4,a4,a1
    1eea:	00f96933          	or	s2,s2,a5
    1eee:	40e80833          	sub	a6,a6,a4
    1ef2:	ac41                	j	2182 <__adddf3+0x526>
    1ef4:	01f867b3          	or	a5,a6,t6
    1ef8:	34078063          	beqz	a5,2238 <__adddf3+0x5dc>
    1efc:	fffe0793          	addi	a5,t3,-1
    1f00:	20078a63          	beqz	a5,2114 <__adddf3+0x4b8>
    1f04:	7ff00693          	li	a3,2047
    1f08:	2ede0863          	beq	t3,a3,21f8 <__adddf3+0x59c>
    1f0c:	8e3e                	mv	t3,a5
    1f0e:	bf2d                	j	1e48 <__adddf3+0x1ec>
    1f10:	140e1e63          	bnez	t3,206c <__adddf3+0x410>
    1f14:	00148693          	addi	a3,s1,1
    1f18:	7fe6f793          	andi	a5,a3,2046
    1f1c:	34079163          	bnez	a5,225e <__adddf3+0x602>
    1f20:	01e767b3          	or	a5,a4,t5
    1f24:	2c049563          	bnez	s1,21ee <__adddf3+0x592>
    1f28:	3e078063          	beqz	a5,2308 <__adddf3+0x6ac>
    1f2c:	01f867b3          	or	a5,a6,t6
    1f30:	30078e63          	beqz	a5,224c <__adddf3+0x5f0>
    1f34:	01ff0933          	add	s2,t5,t6
    1f38:	010707b3          	add	a5,a4,a6
    1f3c:	01e93f33          	sltu	t5,s2,t5
    1f40:	01e78633          	add	a2,a5,t5
    1f44:	00861793          	slli	a5,a2,0x8
    1f48:	0007d763          	bgez	a5,1f56 <__adddf3+0x2fa>
    1f4c:	ff8007b7          	lui	a5,0xff800
    1f50:	17fd                	addi	a5,a5,-1
    1f52:	8e7d                	and	a2,a2,a5
    1f54:	4485                	li	s1,1
    1f56:	00797793          	andi	a5,s2,7
    1f5a:	e0079fe3          	bnez	a5,1d78 <__adddf3+0x11c>
    1f5e:	01d61793          	slli	a5,a2,0x1d
    1f62:	00395893          	srli	a7,s2,0x3
    1f66:	00f8e8b3          	or	a7,a7,a5
    1f6a:	00365793          	srli	a5,a2,0x3
    1f6e:	7ff00713          	li	a4,2047
    1f72:	04e48d63          	beq	s1,a4,1fcc <__adddf3+0x370>
    1f76:	07b2                	slli	a5,a5,0xc
    1f78:	83b1                	srli	a5,a5,0xc
    1f7a:	7ff4f513          	andi	a0,s1,2047
    1f7e:	85ce                	mv	a1,s3
    1f80:	b581                	j	1dc0 <__adddf3+0x164>
    1f82:	01f86933          	or	s2,a6,t6
    1f86:	01203933          	snez	s2,s2
    1f8a:	997a                	add	s2,s2,t5
    1f8c:	01e937b3          	sltu	a5,s2,t5
    1f90:	00e78633          	add	a2,a5,a4
    1f94:	00861793          	slli	a5,a2,0x8
    1f98:	fa07dfe3          	bgez	a5,1f56 <__adddf3+0x2fa>
    1f9c:	0485                	addi	s1,s1,1
    1f9e:	7ff00793          	li	a5,2047
    1fa2:	18f49663          	bne	s1,a5,212e <__adddf3+0x4d2>
    1fa6:	85ce                	mv	a1,s3
    1fa8:	7ff00513          	li	a0,2047
    1fac:	4781                	li	a5,0
    1fae:	4881                	li	a7,0
    1fb0:	bd01                	j	1dc0 <__adddf3+0x164>
    1fb2:	ebc1                	bnez	a5,2042 <__adddf3+0x3e6>
    1fb4:	3a088463          	beqz	a7,235c <__adddf3+0x700>
    1fb8:	00361693          	slli	a3,a2,0x3
    1fbc:	01d81793          	slli	a5,a6,0x1d
    1fc0:	828d                	srli	a3,a3,0x3
    1fc2:	00d7e8b3          	or	a7,a5,a3
    1fc6:	89f6                	mv	s3,t4
    1fc8:	00385793          	srli	a5,a6,0x3
    1fcc:	00f8e7b3          	or	a5,a7,a5
    1fd0:	dbf9                	beqz	a5,1fa6 <__adddf3+0x34a>
    1fd2:	4581                	li	a1,0
    1fd4:	7ff00513          	li	a0,2047
    1fd8:	000807b7          	lui	a5,0x80
    1fdc:	4881                	li	a7,0
    1fde:	b3cd                	j	1dc0 <__adddf3+0x164>
    1fe0:	ff800637          	lui	a2,0xff800
    1fe4:	167d                	addi	a2,a2,-1
    1fe6:	8e7d                	and	a2,a2,a5
    1fe8:	00797793          	andi	a5,s2,7
    1fec:	8c99                	sub	s1,s1,a4
    1fee:	d80795e3          	bnez	a5,1d78 <__adddf3+0x11c>
    1ff2:	b7b5                	j	1f5e <__adddf3+0x302>
    1ff4:	854a                	mv	a0,s2
    1ff6:	0ad020ef          	jal	ra,48a2 <__clzsi2>
    1ffa:	01850713          	addi	a4,a0,24
    1ffe:	47fd                	li	a5,31
    2000:	d2e7d5e3          	bge	a5,a4,1d2a <__adddf3+0xce>
    2004:	ff850613          	addi	a2,a0,-8
    2008:	00c917b3          	sll	a5,s2,a2
    200c:	4901                	li	s2,0
    200e:	bb05                	j	1d3e <__adddf3+0xe2>
    2010:	01f86933          	or	s2,a6,t6
    2014:	01203933          	snez	s2,s2
    2018:	b1dd                	j	1cfe <__adddf3+0xa2>
    201a:	41ff0933          	sub	s2,t5,t6
    201e:	41070633          	sub	a2,a4,a6
    2022:	012f3433          	sltu	s0,t5,s2
    2026:	40860433          	sub	s0,a2,s0
    202a:	00841793          	slli	a5,s0,0x8
    202e:	2407cd63          	bltz	a5,2288 <__adddf3+0x62c>
    2032:	008968b3          	or	a7,s2,s0
    2036:	ce0893e3          	bnez	a7,1d1c <__adddf3+0xc0>
    203a:	4781                	li	a5,0
    203c:	4981                	li	s3,0
    203e:	4481                	li	s1,0
    2040:	bf1d                	j	1f76 <__adddf3+0x31a>
    2042:	f80898e3          	bnez	a7,1fd2 <__adddf3+0x376>
    2046:	050e                	slli	a0,a0,0x3
    2048:	01d71793          	slli	a5,a4,0x1d
    204c:	810d                	srli	a0,a0,0x3
    204e:	00a7e8b3          	or	a7,a5,a0
    2052:	00375793          	srli	a5,a4,0x3
    2056:	bf9d                	j	1fcc <__adddf3+0x370>
    2058:	050e                	slli	a0,a0,0x3
    205a:	01d71793          	slli	a5,a4,0x1d
    205e:	810d                	srli	a0,a0,0x3
    2060:	00a7e8b3          	or	a7,a5,a0
    2064:	84f2                	mv	s1,t3
    2066:	00375793          	srli	a5,a4,0x3
    206a:	b711                	j	1f6e <__adddf3+0x312>
    206c:	40930533          	sub	a0,t1,s1
    2070:	12048263          	beqz	s1,2194 <__adddf3+0x538>
    2074:	008006b7          	lui	a3,0x800
    2078:	7ff00793          	li	a5,2047
    207c:	8f55                	or	a4,a4,a3
    207e:	2ef30d63          	beq	t1,a5,2378 <__adddf3+0x71c>
    2082:	03800793          	li	a5,56
    2086:	20a7cb63          	blt	a5,a0,229c <__adddf3+0x640>
    208a:	47fd                	li	a5,31
    208c:	2aa7c363          	blt	a5,a0,2332 <__adddf3+0x6d6>
    2090:	02000793          	li	a5,32
    2094:	8f89                	sub	a5,a5,a0
    2096:	00f71933          	sll	s2,a4,a5
    209a:	00af56b3          	srl	a3,t5,a0
    209e:	00ff17b3          	sll	a5,t5,a5
    20a2:	00d96933          	or	s2,s2,a3
    20a6:	00f037b3          	snez	a5,a5
    20aa:	00a75733          	srl	a4,a4,a0
    20ae:	00f96933          	or	s2,s2,a5
    20b2:	983a                	add	a6,a6,a4
    20b4:	997e                	add	s2,s2,t6
    20b6:	01f937b3          	sltu	a5,s2,t6
    20ba:	01078633          	add	a2,a5,a6
    20be:	849a                	mv	s1,t1
    20c0:	bdd1                	j	1f94 <__adddf3+0x338>
    20c2:	008006b7          	lui	a3,0x800
    20c6:	7ff00793          	li	a5,2047
    20ca:	8f55                	or	a4,a4,a3
    20cc:	def319e3          	bne	t1,a5,1ebe <__adddf3+0x262>
    20d0:	00361793          	slli	a5,a2,0x3
    20d4:	838d                	srli	a5,a5,0x3
    20d6:	01d81893          	slli	a7,a6,0x1d
    20da:	0117e8b3          	or	a7,a5,a7
    20de:	89f6                	mv	s3,t4
    20e0:	00385793          	srli	a5,a6,0x3
    20e4:	b5e5                	j	1fcc <__adddf3+0x370>
    20e6:	fe150713          	addi	a4,a0,-31
    20ea:	02000693          	li	a3,32
    20ee:	00e7d733          	srl	a4,a5,a4
    20f2:	00d60a63          	beq	a2,a3,2106 <__adddf3+0x4aa>
    20f6:	04000693          	li	a3,64
    20fa:	40c68633          	sub	a2,a3,a2
    20fe:	00c79633          	sll	a2,a5,a2
    2102:	00c96933          	or	s2,s2,a2
    2106:	01203933          	snez	s2,s2
    210a:	00e96933          	or	s2,s2,a4
    210e:	4601                	li	a2,0
    2110:	4481                	li	s1,0
    2112:	b591                	j	1f56 <__adddf3+0x2fa>
    2114:	01ff0933          	add	s2,t5,t6
    2118:	010707b3          	add	a5,a4,a6
    211c:	01e93633          	sltu	a2,s2,t5
    2120:	963e                	add	a2,a2,a5
    2122:	00861793          	slli	a5,a2,0x8
    2126:	4485                	li	s1,1
    2128:	e207d7e3          	bgez	a5,1f56 <__adddf3+0x2fa>
    212c:	4489                	li	s1,2
    212e:	ff8007b7          	lui	a5,0xff800
    2132:	17fd                	addi	a5,a5,-1
    2134:	8ff1                	and	a5,a5,a2
    2136:	00195713          	srli	a4,s2,0x1
    213a:	00197913          	andi	s2,s2,1
    213e:	01276933          	or	s2,a4,s2
    2142:	01f79893          	slli	a7,a5,0x1f
    2146:	0128e933          	or	s2,a7,s2
    214a:	0017d613          	srli	a2,a5,0x1
    214e:	b115                	j	1d72 <__adddf3+0x116>
    2150:	fe0e0913          	addi	s2,t3,-32
    2154:	02000793          	li	a5,32
    2158:	012856b3          	srl	a3,a6,s2
    215c:	00fe0a63          	beq	t3,a5,2170 <__adddf3+0x514>
    2160:	04000913          	li	s2,64
    2164:	41c90933          	sub	s2,s2,t3
    2168:	01281933          	sll	s2,a6,s2
    216c:	012fefb3          	or	t6,t6,s2
    2170:	01f03933          	snez	s2,t6
    2174:	00d96933          	or	s2,s2,a3
    2178:	b659                	j	1cfe <__adddf3+0xa2>
    217a:	01e76933          	or	s2,a4,t5
    217e:	01203933          	snez	s2,s2
    2182:	412f8933          	sub	s2,t6,s2
    2186:	012fb7b3          	sltu	a5,t6,s2
    218a:	40f80633          	sub	a2,a6,a5
    218e:	849a                	mv	s1,t1
    2190:	89f6                	mv	s3,t4
    2192:	bea5                	j	1d0a <__adddf3+0xae>
    2194:	01e767b3          	or	a5,a4,t5
    2198:	18078263          	beqz	a5,231c <__adddf3+0x6c0>
    219c:	fff50793          	addi	a5,a0,-1
    21a0:	1c078463          	beqz	a5,2368 <__adddf3+0x70c>
    21a4:	7ff00693          	li	a3,2047
    21a8:	12d50463          	beq	a0,a3,22d0 <__adddf3+0x674>
    21ac:	853e                	mv	a0,a5
    21ae:	bdd1                	j	2082 <__adddf3+0x426>
    21b0:	02000793          	li	a5,32
    21b4:	41c787b3          	sub	a5,a5,t3
    21b8:	00f816b3          	sll	a3,a6,a5
    21bc:	00ff9933          	sll	s2,t6,a5
    21c0:	01cfd633          	srl	a2,t6,t3
    21c4:	8ed1                	or	a3,a3,a2
    21c6:	01203933          	snez	s2,s2
    21ca:	01c857b3          	srl	a5,a6,t3
    21ce:	0126e933          	or	s2,a3,s2
    21d2:	973e                	add	a4,a4,a5
    21d4:	bb5d                	j	1f8a <__adddf3+0x32e>
    21d6:	00361793          	slli	a5,a2,0x3
    21da:	838d                	srli	a5,a5,0x3
    21dc:	01d81893          	slli	a7,a6,0x1d
    21e0:	0117e8b3          	or	a7,a5,a7
    21e4:	84ae                	mv	s1,a1
    21e6:	00385793          	srli	a5,a6,0x3
    21ea:	89f6                	mv	s3,t4
    21ec:	b349                	j	1f6e <__adddf3+0x312>
    21ee:	c3ed                	beqz	a5,22d0 <__adddf3+0x674>
    21f0:	01f86933          	or	s2,a6,t6
    21f4:	dc091fe3          	bnez	s2,1fd2 <__adddf3+0x376>
    21f8:	050e                	slli	a0,a0,0x3
    21fa:	01d71793          	slli	a5,a4,0x1d
    21fe:	810d                	srli	a0,a0,0x3
    2200:	00f568b3          	or	a7,a0,a5
    2204:	00375793          	srli	a5,a4,0x3
    2208:	b3d1                	j	1fcc <__adddf3+0x370>
    220a:	0e088163          	beqz	a7,22ec <__adddf3+0x690>
    220e:	00361693          	slli	a3,a2,0x3
    2212:	01d81793          	slli	a5,a6,0x1d
    2216:	828d                	srli	a3,a3,0x3
    2218:	00d7e8b3          	or	a7,a5,a3
    221c:	89f6                	mv	s3,t4
    221e:	00385793          	srli	a5,a6,0x3
    2222:	bb91                	j	1f76 <__adddf3+0x31a>
    2224:	41ff0933          	sub	s2,t5,t6
    2228:	410707b3          	sub	a5,a4,a6
    222c:	012f3f33          	sltu	t5,t5,s2
    2230:	41e78633          	sub	a2,a5,t5
    2234:	4485                	li	s1,1
    2236:	bcd1                	j	1d0a <__adddf3+0xae>
    2238:	050e                	slli	a0,a0,0x3
    223a:	01d71793          	slli	a5,a4,0x1d
    223e:	810d                	srli	a0,a0,0x3
    2240:	00f568b3          	or	a7,a0,a5
    2244:	84f2                	mv	s1,t3
    2246:	00375793          	srli	a5,a4,0x3
    224a:	b315                	j	1f6e <__adddf3+0x312>
    224c:	050e                	slli	a0,a0,0x3
    224e:	01d71793          	slli	a5,a4,0x1d
    2252:	810d                	srli	a0,a0,0x3
    2254:	00a7e8b3          	or	a7,a5,a0
    2258:	00375793          	srli	a5,a4,0x3
    225c:	bb29                	j	1f76 <__adddf3+0x31a>
    225e:	7ff00793          	li	a5,2047
    2262:	d4f682e3          	beq	a3,a5,1fa6 <__adddf3+0x34a>
    2266:	01ff0933          	add	s2,t5,t6
    226a:	01e93633          	sltu	a2,s2,t5
    226e:	010707b3          	add	a5,a4,a6
    2272:	97b2                	add	a5,a5,a2
    2274:	01f79893          	slli	a7,a5,0x1f
    2278:	00195913          	srli	s2,s2,0x1
    227c:	0128e933          	or	s2,a7,s2
    2280:	0017d613          	srli	a2,a5,0x1
    2284:	84b6                	mv	s1,a3
    2286:	b9c1                	j	1f56 <__adddf3+0x2fa>
    2288:	41ef8933          	sub	s2,t6,t5
    228c:	40e80733          	sub	a4,a6,a4
    2290:	012fb633          	sltu	a2,t6,s2
    2294:	40c70433          	sub	s0,a4,a2
    2298:	89f6                	mv	s3,t4
    229a:	b449                	j	1d1c <__adddf3+0xc0>
    229c:	01e76933          	or	s2,a4,t5
    22a0:	01203933          	snez	s2,s2
    22a4:	bd01                	j	20b4 <__adddf3+0x458>
    22a6:	fe058793          	addi	a5,a1,-32
    22aa:	02000693          	li	a3,32
    22ae:	00f757b3          	srl	a5,a4,a5
    22b2:	00d58a63          	beq	a1,a3,22c6 <__adddf3+0x66a>
    22b6:	04000693          	li	a3,64
    22ba:	40b685b3          	sub	a1,a3,a1
    22be:	00b71733          	sll	a4,a4,a1
    22c2:	00ef6f33          	or	t5,t5,a4
    22c6:	01e03933          	snez	s2,t5
    22ca:	00f96933          	or	s2,s2,a5
    22ce:	bd55                	j	2182 <__adddf3+0x526>
    22d0:	00361793          	slli	a5,a2,0x3
    22d4:	838d                	srli	a5,a5,0x3
    22d6:	01d81893          	slli	a7,a6,0x1d
    22da:	0117e8b3          	or	a7,a5,a7
    22de:	00385793          	srli	a5,a6,0x3
    22e2:	b1ed                	j	1fcc <__adddf3+0x370>
    22e4:	00c968b3          	or	a7,s2,a2
    22e8:	c60897e3          	bnez	a7,1f56 <__adddf3+0x2fa>
    22ec:	4781                	li	a5,0
    22ee:	4981                	li	s3,0
    22f0:	b159                	j	1f76 <__adddf3+0x31a>
    22f2:	41ef8933          	sub	s2,t6,t5
    22f6:	40e807b3          	sub	a5,a6,a4
    22fa:	012fb633          	sltu	a2,t6,s2
    22fe:	40c78633          	sub	a2,a5,a2
    2302:	89f6                	mv	s3,t4
    2304:	4485                	li	s1,1
    2306:	b411                	j	1d0a <__adddf3+0xae>
    2308:	00361693          	slli	a3,a2,0x3
    230c:	01d81793          	slli	a5,a6,0x1d
    2310:	828d                	srli	a3,a3,0x3
    2312:	00d7e8b3          	or	a7,a5,a3
    2316:	00385793          	srli	a5,a6,0x3
    231a:	b9b1                	j	1f76 <__adddf3+0x31a>
    231c:	00361693          	slli	a3,a2,0x3
    2320:	01d81793          	slli	a5,a6,0x1d
    2324:	828d                	srli	a3,a3,0x3
    2326:	00d7e8b3          	or	a7,a5,a3
    232a:	84aa                	mv	s1,a0
    232c:	00385793          	srli	a5,a6,0x3
    2330:	b93d                	j	1f6e <__adddf3+0x312>
    2332:	fe050793          	addi	a5,a0,-32
    2336:	02000693          	li	a3,32
    233a:	00f757b3          	srl	a5,a4,a5
    233e:	00d50a63          	beq	a0,a3,2352 <__adddf3+0x6f6>
    2342:	04000693          	li	a3,64
    2346:	40a68533          	sub	a0,a3,a0
    234a:	00a71733          	sll	a4,a4,a0
    234e:	00ef6f33          	or	t5,t5,a4
    2352:	01e03933          	snez	s2,t5
    2356:	00f96933          	or	s2,s2,a5
    235a:	bba9                	j	20b4 <__adddf3+0x458>
    235c:	4581                	li	a1,0
    235e:	7ff00513          	li	a0,2047
    2362:	000807b7          	lui	a5,0x80
    2366:	bca9                	j	1dc0 <__adddf3+0x164>
    2368:	01ff0933          	add	s2,t5,t6
    236c:	010707b3          	add	a5,a4,a6
    2370:	01f93633          	sltu	a2,s2,t6
    2374:	963e                	add	a2,a2,a5
    2376:	b375                	j	2122 <__adddf3+0x4c6>
    2378:	00361693          	slli	a3,a2,0x3
    237c:	01d81793          	slli	a5,a6,0x1d
    2380:	828d                	srli	a3,a3,0x3
    2382:	00d7e8b3          	or	a7,a5,a3
    2386:	00385793          	srli	a5,a6,0x3
    238a:	b189                	j	1fcc <__adddf3+0x370>

0000238c <__divdf3>:
    238c:	7139                	addi	sp,sp,-64
    238e:	0145d793          	srli	a5,a1,0x14
    2392:	dc22                	sw	s0,56(sp)
    2394:	d84a                	sw	s2,48(sp)
    2396:	d256                	sw	s5,36(sp)
    2398:	892a                	mv	s2,a0
    239a:	00c59413          	slli	s0,a1,0xc
    239e:	de06                	sw	ra,60(sp)
    23a0:	da26                	sw	s1,52(sp)
    23a2:	d64e                	sw	s3,44(sp)
    23a4:	d452                	sw	s4,40(sp)
    23a6:	d05a                	sw	s6,32(sp)
    23a8:	ce5e                	sw	s7,28(sp)
    23aa:	7ff7f513          	andi	a0,a5,2047
    23ae:	8031                	srli	s0,s0,0xc
    23b0:	01f5da93          	srli	s5,a1,0x1f
    23b4:	10050b63          	beqz	a0,24ca <__divdf3+0x13e>
    23b8:	7ff00793          	li	a5,2047
    23bc:	14f50b63          	beq	a0,a5,2512 <__divdf3+0x186>
    23c0:	01d95a13          	srli	s4,s2,0x1d
    23c4:	040e                	slli	s0,s0,0x3
    23c6:	008a6433          	or	s0,s4,s0
    23ca:	00800a37          	lui	s4,0x800
    23ce:	01446a33          	or	s4,s0,s4
    23d2:	00391b13          	slli	s6,s2,0x3
    23d6:	c0150493          	addi	s1,a0,-1023
    23da:	4401                	li	s0,0
    23dc:	4b81                	li	s7,0
    23de:	0146d813          	srli	a6,a3,0x14
    23e2:	00c69913          	slli	s2,a3,0xc
    23e6:	7ff87813          	andi	a6,a6,2047
    23ea:	88b2                	mv	a7,a2
    23ec:	00c95913          	srli	s2,s2,0xc
    23f0:	01f6d993          	srli	s3,a3,0x1f
    23f4:	08080e63          	beqz	a6,2490 <__divdf3+0x104>
    23f8:	7ff00793          	li	a5,2047
    23fc:	04f80063          	beq	a6,a5,243c <__divdf3+0xb0>
    2400:	01d65713          	srli	a4,a2,0x1d
    2404:	090e                	slli	s2,s2,0x3
    2406:	01276933          	or	s2,a4,s2
    240a:	c0180813          	addi	a6,a6,-1023 # ffc01 <_data_lma+0xf9cb5>
    240e:	008007b7          	lui	a5,0x800
    2412:	00f96733          	or	a4,s2,a5
    2416:	00361893          	slli	a7,a2,0x3
    241a:	410484b3          	sub	s1,s1,a6
    241e:	4581                	li	a1,0
    2420:	47bd                	li	a5,15
    2422:	013ac833          	xor	a6,s5,s3
    2426:	1a87e463          	bltu	a5,s0,25ce <__divdf3+0x242>
    242a:	00004797          	auipc	a5,0x4
    242e:	84678793          	addi	a5,a5,-1978 # 5c70 <_read+0x1a8>
    2432:	040a                	slli	s0,s0,0x2
    2434:	943e                	add	s0,s0,a5
    2436:	4010                	lw	a2,0(s0)
    2438:	963e                	add	a2,a2,a5
    243a:	8602                	jr	a2
    243c:	00c96733          	or	a4,s2,a2
    2440:	80148493          	addi	s1,s1,-2047
    2444:	10071263          	bnez	a4,2548 <__divdf3+0x1bc>
    2448:	00246413          	ori	s0,s0,2
    244c:	4881                	li	a7,0
    244e:	4589                	li	a1,2
    2450:	bfc1                	j	2420 <__divdf3+0x94>
    2452:	7ff00613          	li	a2,2047
    2456:	4781                	li	a5,0
    2458:	4701                	li	a4,0
    245a:	07b2                	slli	a5,a5,0xc
    245c:	50f2                	lw	ra,60(sp)
    245e:	5462                	lw	s0,56(sp)
    2460:	0652                	slli	a2,a2,0x14
    2462:	83b1                	srli	a5,a5,0xc
    2464:	087e                	slli	a6,a6,0x1f
    2466:	8fd1                	or	a5,a5,a2
    2468:	0107e7b3          	or	a5,a5,a6
    246c:	54d2                	lw	s1,52(sp)
    246e:	5942                	lw	s2,48(sp)
    2470:	59b2                	lw	s3,44(sp)
    2472:	5a22                	lw	s4,40(sp)
    2474:	5a92                	lw	s5,36(sp)
    2476:	5b02                	lw	s6,32(sp)
    2478:	4bf2                	lw	s7,28(sp)
    247a:	853a                	mv	a0,a4
    247c:	85be                	mv	a1,a5
    247e:	6121                	addi	sp,sp,64
    2480:	8082                	ret
    2482:	4801                	li	a6,0
    2484:	7ff00613          	li	a2,2047
    2488:	000807b7          	lui	a5,0x80
    248c:	4701                	li	a4,0
    248e:	b7f1                	j	245a <__divdf3+0xce>
    2490:	00c96733          	or	a4,s2,a2
    2494:	c74d                	beqz	a4,253e <__divdf3+0x1b2>
    2496:	30090863          	beqz	s2,27a6 <__divdf3+0x41a>
    249a:	854a                	mv	a0,s2
    249c:	c432                	sw	a2,8(sp)
    249e:	404020ef          	jal	ra,48a2 <__clzsi2>
    24a2:	4622                	lw	a2,8(sp)
    24a4:	ff550713          	addi	a4,a0,-11
    24a8:	47f5                	li	a5,29
    24aa:	ff850693          	addi	a3,a0,-8
    24ae:	8f99                	sub	a5,a5,a4
    24b0:	00d91933          	sll	s2,s2,a3
    24b4:	00f657b3          	srl	a5,a2,a5
    24b8:	0127e733          	or	a4,a5,s2
    24bc:	00d618b3          	sll	a7,a2,a3
    24c0:	9526                	add	a0,a0,s1
    24c2:	3f350493          	addi	s1,a0,1011
    24c6:	4581                	li	a1,0
    24c8:	bfa1                	j	2420 <__divdf3+0x94>
    24ca:	01246a33          	or	s4,s0,s2
    24ce:	060a0363          	beqz	s4,2534 <__divdf3+0x1a8>
    24d2:	c636                	sw	a3,12(sp)
    24d4:	c432                	sw	a2,8(sp)
    24d6:	2a040663          	beqz	s0,2782 <__divdf3+0x3f6>
    24da:	8522                	mv	a0,s0
    24dc:	3c6020ef          	jal	ra,48a2 <__clzsi2>
    24e0:	4622                	lw	a2,8(sp)
    24e2:	46b2                	lw	a3,12(sp)
    24e4:	84aa                	mv	s1,a0
    24e6:	ff550713          	addi	a4,a0,-11
    24ea:	4a75                	li	s4,29
    24ec:	ff848b13          	addi	s6,s1,-8
    24f0:	40ea0a33          	sub	s4,s4,a4
    24f4:	01641433          	sll	s0,s0,s6
    24f8:	01495a33          	srl	s4,s2,s4
    24fc:	008a6a33          	or	s4,s4,s0
    2500:	01691b33          	sll	s6,s2,s6
    2504:	c0d00513          	li	a0,-1011
    2508:	409504b3          	sub	s1,a0,s1
    250c:	4401                	li	s0,0
    250e:	4b81                	li	s7,0
    2510:	b5f9                	j	23de <__divdf3+0x52>
    2512:	01246a33          	or	s4,s0,s2
    2516:	000a1863          	bnez	s4,2526 <__divdf3+0x19a>
    251a:	4421                	li	s0,8
    251c:	4b01                	li	s6,0
    251e:	7ff00493          	li	s1,2047
    2522:	4b89                	li	s7,2
    2524:	bd6d                	j	23de <__divdf3+0x52>
    2526:	8a22                	mv	s4,s0
    2528:	8b4a                	mv	s6,s2
    252a:	4431                	li	s0,12
    252c:	7ff00493          	li	s1,2047
    2530:	4b8d                	li	s7,3
    2532:	b575                	j	23de <__divdf3+0x52>
    2534:	4411                	li	s0,4
    2536:	4b01                	li	s6,0
    2538:	4481                	li	s1,0
    253a:	4b85                	li	s7,1
    253c:	b54d                	j	23de <__divdf3+0x52>
    253e:	00146413          	ori	s0,s0,1
    2542:	4881                	li	a7,0
    2544:	4585                	li	a1,1
    2546:	bde9                	j	2420 <__divdf3+0x94>
    2548:	00346413          	ori	s0,s0,3
    254c:	874a                	mv	a4,s2
    254e:	458d                	li	a1,3
    2550:	bdc1                	j	2420 <__divdf3+0x94>
    2552:	2e050a63          	beqz	a0,2846 <__divdf3+0x4ba>
    2556:	4785                	li	a5,1
    2558:	8f89                	sub	a5,a5,a0
    255a:	03800693          	li	a3,56
    255e:	32f6dd63          	bge	a3,a5,2898 <__divdf3+0x50c>
    2562:	4601                	li	a2,0
    2564:	4781                	li	a5,0
    2566:	4701                	li	a4,0
    2568:	bdcd                	j	245a <__divdf3+0xce>
    256a:	86ce                	mv	a3,s3
    256c:	4789                	li	a5,2
    256e:	3af58d63          	beq	a1,a5,2928 <__divdf3+0x59c>
    2572:	478d                	li	a5,3
    2574:	f0f587e3          	beq	a1,a5,2482 <__divdf3+0xf6>
    2578:	4785                	li	a5,1
    257a:	8836                	mv	a6,a3
    257c:	fef583e3          	beq	a1,a5,2562 <__divdf3+0x1d6>
    2580:	3ff48513          	addi	a0,s1,1023
    2584:	fca057e3          	blez	a0,2552 <__divdf3+0x1c6>
    2588:	0078f793          	andi	a5,a7,7
    258c:	28079663          	bnez	a5,2818 <__divdf3+0x48c>
    2590:	0038d693          	srli	a3,a7,0x3
    2594:	00771793          	slli	a5,a4,0x7
    2598:	0007d863          	bgez	a5,25a8 <__divdf3+0x21c>
    259c:	ff0007b7          	lui	a5,0xff000
    25a0:	17fd                	addi	a5,a5,-1
    25a2:	8f7d                	and	a4,a4,a5
    25a4:	40048513          	addi	a0,s1,1024
    25a8:	7fe00793          	li	a5,2046
    25ac:	eaa7c3e3          	blt	a5,a0,2452 <__divdf3+0xc6>
    25b0:	01d71613          	slli	a2,a4,0x1d
    25b4:	00971793          	slli	a5,a4,0x9
    25b8:	83b1                	srli	a5,a5,0xc
    25ba:	00d66733          	or	a4,a2,a3
    25be:	7ff57613          	andi	a2,a0,2047
    25c2:	bd61                	j	245a <__divdf3+0xce>
    25c4:	86d6                	mv	a3,s5
    25c6:	8752                	mv	a4,s4
    25c8:	88da                	mv	a7,s6
    25ca:	85de                	mv	a1,s7
    25cc:	b745                	j	256c <__divdf3+0x1e0>
    25ce:	23476163          	bltu	a4,s4,27f0 <__divdf3+0x464>
    25d2:	20ea0d63          	beq	s4,a4,27ec <__divdf3+0x460>
    25d6:	86da                	mv	a3,s6
    25d8:	14fd                	addi	s1,s1,-1
    25da:	8452                	mv	s0,s4
    25dc:	4b01                	li	s6,0
    25de:	00871793          	slli	a5,a4,0x8
    25e2:	0188d313          	srli	t1,a7,0x18
    25e6:	00f36333          	or	t1,t1,a5
    25ea:	01035e93          	srli	t4,t1,0x10
    25ee:	03d457b3          	divu	a5,s0,t4
    25f2:	01031f13          	slli	t5,t1,0x10
    25f6:	010f5f13          	srli	t5,t5,0x10
    25fa:	0106d593          	srli	a1,a3,0x10
    25fe:	00889e13          	slli	t3,a7,0x8
    2602:	03d47433          	remu	s0,s0,t4
    2606:	02ff0733          	mul	a4,t5,a5
    260a:	0442                	slli	s0,s0,0x10
    260c:	8dc1                	or	a1,a1,s0
    260e:	00e5fb63          	bgeu	a1,a4,2624 <__divdf3+0x298>
    2612:	959a                	add	a1,a1,t1
    2614:	fff78613          	addi	a2,a5,-1 # feffffff <_eusrstack+0xdeffafff>
    2618:	2665ee63          	bltu	a1,t1,2894 <__divdf3+0x508>
    261c:	26e5fc63          	bgeu	a1,a4,2894 <__divdf3+0x508>
    2620:	17f9                	addi	a5,a5,-2
    2622:	959a                	add	a1,a1,t1
    2624:	8d99                	sub	a1,a1,a4
    2626:	03d5d733          	divu	a4,a1,t4
    262a:	06c2                	slli	a3,a3,0x10
    262c:	82c1                	srli	a3,a3,0x10
    262e:	03d5f5b3          	remu	a1,a1,t4
    2632:	02ef0633          	mul	a2,t5,a4
    2636:	05c2                	slli	a1,a1,0x10
    2638:	8dd5                	or	a1,a1,a3
    263a:	00c5fb63          	bgeu	a1,a2,2650 <__divdf3+0x2c4>
    263e:	959a                	add	a1,a1,t1
    2640:	fff70693          	addi	a3,a4,-1 # 7fffff <_data_lma+0x7fa0b3>
    2644:	2465e663          	bltu	a1,t1,2890 <__divdf3+0x504>
    2648:	24c5f463          	bgeu	a1,a2,2890 <__divdf3+0x504>
    264c:	1779                	addi	a4,a4,-2
    264e:	959a                	add	a1,a1,t1
    2650:	07c2                	slli	a5,a5,0x10
    2652:	6441                	lui	s0,0x10
    2654:	8f5d                	or	a4,a4,a5
    2656:	fff40793          	addi	a5,s0,-1 # ffff <_data_lma+0xa0b3>
    265a:	00f77533          	and	a0,a4,a5
    265e:	01075893          	srli	a7,a4,0x10
    2662:	010e5f93          	srli	t6,t3,0x10
    2666:	00fe77b3          	and	a5,t3,a5
    266a:	02f502b3          	mul	t0,a0,a5
    266e:	40c586b3          	sub	a3,a1,a2
    2672:	02f883b3          	mul	t2,a7,a5
    2676:	0102d593          	srli	a1,t0,0x10
    267a:	02af8633          	mul	a2,t6,a0
    267e:	961e                	add	a2,a2,t2
    2680:	962e                	add	a2,a2,a1
    2682:	03f88533          	mul	a0,a7,t6
    2686:	00767363          	bgeu	a2,t2,268c <__divdf3+0x300>
    268a:	9522                	add	a0,a0,s0
    268c:	68c1                	lui	a7,0x10
    268e:	18fd                	addi	a7,a7,-1
    2690:	01065593          	srli	a1,a2,0x10
    2694:	01167633          	and	a2,a2,a7
    2698:	0642                	slli	a2,a2,0x10
    269a:	0112f8b3          	and	a7,t0,a7
    269e:	95aa                	add	a1,a1,a0
    26a0:	9646                	add	a2,a2,a7
    26a2:	12b6e663          	bltu	a3,a1,27ce <__divdf3+0x442>
    26a6:	12b68263          	beq	a3,a1,27ca <__divdf3+0x43e>
    26aa:	40cb0633          	sub	a2,s6,a2
    26ae:	8e8d                	sub	a3,a3,a1
    26b0:	00cb3b33          	sltu	s6,s6,a2
    26b4:	41668b33          	sub	s6,a3,s6
    26b8:	3ff48513          	addi	a0,s1,1023
    26bc:	17630c63          	beq	t1,s6,2834 <__divdf3+0x4a8>
    26c0:	03db58b3          	divu	a7,s6,t4
    26c4:	01065593          	srli	a1,a2,0x10
    26c8:	03db7b33          	remu	s6,s6,t4
    26cc:	031f06b3          	mul	a3,t5,a7
    26d0:	0b42                	slli	s6,s6,0x10
    26d2:	0165eb33          	or	s6,a1,s6
    26d6:	00db7b63          	bgeu	s6,a3,26ec <__divdf3+0x360>
    26da:	9b1a                	add	s6,s6,t1
    26dc:	fff88593          	addi	a1,a7,-1 # ffff <_data_lma+0xa0b3>
    26e0:	206b6d63          	bltu	s6,t1,28fa <__divdf3+0x56e>
    26e4:	20db7b63          	bgeu	s6,a3,28fa <__divdf3+0x56e>
    26e8:	18f9                	addi	a7,a7,-2
    26ea:	9b1a                	add	s6,s6,t1
    26ec:	40db0b33          	sub	s6,s6,a3
    26f0:	03db56b3          	divu	a3,s6,t4
    26f4:	0642                	slli	a2,a2,0x10
    26f6:	8241                	srli	a2,a2,0x10
    26f8:	03db7b33          	remu	s6,s6,t4
    26fc:	02df0f33          	mul	t5,t5,a3
    2700:	0b42                	slli	s6,s6,0x10
    2702:	01666633          	or	a2,a2,s6
    2706:	01e67b63          	bgeu	a2,t5,271c <__divdf3+0x390>
    270a:	961a                	add	a2,a2,t1
    270c:	fff68593          	addi	a1,a3,-1 # 7fffff <_data_lma+0x7fa0b3>
    2710:	1e666763          	bltu	a2,t1,28fe <__divdf3+0x572>
    2714:	1fe67563          	bgeu	a2,t5,28fe <__divdf3+0x572>
    2718:	16f9                	addi	a3,a3,-2
    271a:	961a                	add	a2,a2,t1
    271c:	08c2                	slli	a7,a7,0x10
    271e:	00d8e8b3          	or	a7,a7,a3
    2722:	01089593          	slli	a1,a7,0x10
    2726:	0108d293          	srli	t0,a7,0x10
    272a:	81c1                	srli	a1,a1,0x10
    272c:	02f58eb3          	mul	t4,a1,a5
    2730:	41e60633          	sub	a2,a2,t5
    2734:	02bf85b3          	mul	a1,t6,a1
    2738:	010ed693          	srli	a3,t4,0x10
    273c:	02f287b3          	mul	a5,t0,a5
    2740:	95be                	add	a1,a1,a5
    2742:	96ae                	add	a3,a3,a1
    2744:	025f8fb3          	mul	t6,t6,t0
    2748:	00f6f463          	bgeu	a3,a5,2750 <__divdf3+0x3c4>
    274c:	67c1                	lui	a5,0x10
    274e:	9fbe                	add	t6,t6,a5
    2750:	65c1                	lui	a1,0x10
    2752:	15fd                	addi	a1,a1,-1
    2754:	0106d793          	srli	a5,a3,0x10
    2758:	8eed                	and	a3,a3,a1
    275a:	06c2                	slli	a3,a3,0x10
    275c:	00befeb3          	and	t4,t4,a1
    2760:	9fbe                	add	t6,t6,a5
    2762:	96f6                	add	a3,a3,t4
    2764:	09f67f63          	bgeu	a2,t6,2802 <__divdf3+0x476>
    2768:	961a                	add	a2,a2,t1
    276a:	fff88793          	addi	a5,a7,-1
    276e:	1a666963          	bltu	a2,t1,2920 <__divdf3+0x594>
    2772:	19f66863          	bltu	a2,t6,2902 <__divdf3+0x576>
    2776:	1bf60f63          	beq	a2,t6,2934 <__divdf3+0x5a8>
    277a:	88be                	mv	a7,a5
    277c:	0018e893          	ori	a7,a7,1
    2780:	b511                	j	2584 <__divdf3+0x1f8>
    2782:	854a                	mv	a0,s2
    2784:	11e020ef          	jal	ra,48a2 <__clzsi2>
    2788:	01550713          	addi	a4,a0,21
    278c:	45f1                	li	a1,28
    278e:	02050493          	addi	s1,a0,32
    2792:	4622                	lw	a2,8(sp)
    2794:	46b2                	lw	a3,12(sp)
    2796:	d4e5dae3          	bge	a1,a4,24ea <__divdf3+0x15e>
    279a:	ff850413          	addi	s0,a0,-8
    279e:	00891a33          	sll	s4,s2,s0
    27a2:	4b01                	li	s6,0
    27a4:	b385                	j	2504 <__divdf3+0x178>
    27a6:	8532                	mv	a0,a2
    27a8:	c432                	sw	a2,8(sp)
    27aa:	0f8020ef          	jal	ra,48a2 <__clzsi2>
    27ae:	01550713          	addi	a4,a0,21
    27b2:	46f1                	li	a3,28
    27b4:	87aa                	mv	a5,a0
    27b6:	4622                	lw	a2,8(sp)
    27b8:	02050513          	addi	a0,a0,32
    27bc:	cee6d6e3          	bge	a3,a4,24a8 <__divdf3+0x11c>
    27c0:	17e1                	addi	a5,a5,-8
    27c2:	00f61733          	sll	a4,a2,a5
    27c6:	4881                	li	a7,0
    27c8:	b9e5                	j	24c0 <__divdf3+0x134>
    27ca:	eecb70e3          	bgeu	s6,a2,26aa <__divdf3+0x31e>
    27ce:	9b72                	add	s6,s6,t3
    27d0:	01cb3533          	sltu	a0,s6,t3
    27d4:	951a                	add	a0,a0,t1
    27d6:	96aa                	add	a3,a3,a0
    27d8:	fff70513          	addi	a0,a4,-1
    27dc:	02d37863          	bgeu	t1,a3,280c <__divdf3+0x480>
    27e0:	10b6e663          	bltu	a3,a1,28ec <__divdf3+0x560>
    27e4:	10d58263          	beq	a1,a3,28e8 <__divdf3+0x55c>
    27e8:	872a                	mv	a4,a0
    27ea:	b5c1                	j	26aa <__divdf3+0x31e>
    27ec:	df1b65e3          	bltu	s6,a7,25d6 <__divdf3+0x24a>
    27f0:	001b5593          	srli	a1,s6,0x1
    27f4:	01fa1693          	slli	a3,s4,0x1f
    27f8:	001a5413          	srli	s0,s4,0x1
    27fc:	8ecd                	or	a3,a3,a1
    27fe:	0b7e                	slli	s6,s6,0x1f
    2800:	bbf9                	j	25de <__divdf3+0x252>
    2802:	f7f61de3          	bne	a2,t6,277c <__divdf3+0x3f0>
    2806:	d6068fe3          	beqz	a3,2584 <__divdf3+0x1f8>
    280a:	bfb9                	j	2768 <__divdf3+0x3dc>
    280c:	fcd31ee3          	bne	t1,a3,27e8 <__divdf3+0x45c>
    2810:	fdcb78e3          	bgeu	s6,t3,27e0 <__divdf3+0x454>
    2814:	872a                	mv	a4,a0
    2816:	bd51                	j	26aa <__divdf3+0x31e>
    2818:	00f8f793          	andi	a5,a7,15
    281c:	4691                	li	a3,4
    281e:	d6d789e3          	beq	a5,a3,2590 <__divdf3+0x204>
    2822:	ffc8b793          	sltiu	a5,a7,-4
    2826:	00488693          	addi	a3,a7,4
    282a:	0017c793          	xori	a5,a5,1
    282e:	828d                	srli	a3,a3,0x3
    2830:	973e                	add	a4,a4,a5
    2832:	b38d                	j	2594 <__divdf3+0x208>
    2834:	4681                	li	a3,0
    2836:	4785                	li	a5,1
    2838:	fea04ce3          	bgtz	a0,2830 <__divdf3+0x4a4>
    283c:	58fd                	li	a7,-1
    283e:	d0051ce3          	bnez	a0,2556 <__divdf3+0x1ca>
    2842:	c0100493          	li	s1,-1023
    2846:	4785                	li	a5,1
    2848:	41e48513          	addi	a0,s1,1054
    284c:	00a716b3          	sll	a3,a4,a0
    2850:	00f8d633          	srl	a2,a7,a5
    2854:	00a89533          	sll	a0,a7,a0
    2858:	8ed1                	or	a3,a3,a2
    285a:	00a03533          	snez	a0,a0
    285e:	8ec9                	or	a3,a3,a0
    2860:	0076f613          	andi	a2,a3,7
    2864:	00f75733          	srl	a4,a4,a5
    2868:	ce01                	beqz	a2,2880 <__divdf3+0x4f4>
    286a:	00f6f793          	andi	a5,a3,15
    286e:	4611                	li	a2,4
    2870:	00c78863          	beq	a5,a2,2880 <__divdf3+0x4f4>
    2874:	00468793          	addi	a5,a3,4
    2878:	00d7b6b3          	sltu	a3,a5,a3
    287c:	9736                	add	a4,a4,a3
    287e:	86be                	mv	a3,a5
    2880:	00871793          	slli	a5,a4,0x8
    2884:	0407d863          	bgez	a5,28d4 <__divdf3+0x548>
    2888:	4605                	li	a2,1
    288a:	4781                	li	a5,0
    288c:	4701                	li	a4,0
    288e:	b6f1                	j	245a <__divdf3+0xce>
    2890:	8736                	mv	a4,a3
    2892:	bb7d                	j	2650 <__divdf3+0x2c4>
    2894:	87b2                	mv	a5,a2
    2896:	b379                	j	2624 <__divdf3+0x298>
    2898:	46fd                	li	a3,31
    289a:	faf6d7e3          	bge	a3,a5,2848 <__divdf3+0x4bc>
    289e:	5605                	li	a2,-31
    28a0:	8e09                	sub	a2,a2,a0
    28a2:	02000693          	li	a3,32
    28a6:	00c75633          	srl	a2,a4,a2
    28aa:	00d78863          	beq	a5,a3,28ba <__divdf3+0x52e>
    28ae:	43e48793          	addi	a5,s1,1086
    28b2:	00f717b3          	sll	a5,a4,a5
    28b6:	00f8e8b3          	or	a7,a7,a5
    28ba:	011036b3          	snez	a3,a7
    28be:	8ed1                	or	a3,a3,a2
    28c0:	0076f613          	andi	a2,a3,7
    28c4:	4781                	li	a5,0
    28c6:	ce01                	beqz	a2,28de <__divdf3+0x552>
    28c8:	00f6f793          	andi	a5,a3,15
    28cc:	4611                	li	a2,4
    28ce:	4701                	li	a4,0
    28d0:	fac792e3          	bne	a5,a2,2874 <__divdf3+0x4e8>
    28d4:	00971793          	slli	a5,a4,0x9
    28d8:	01d71613          	slli	a2,a4,0x1d
    28dc:	83b1                	srli	a5,a5,0xc
    28de:	0036d713          	srli	a4,a3,0x3
    28e2:	8f51                	or	a4,a4,a2
    28e4:	4601                	li	a2,0
    28e6:	be95                	j	245a <__divdf3+0xce>
    28e8:	f0cb70e3          	bgeu	s6,a2,27e8 <__divdf3+0x45c>
    28ec:	9b72                	add	s6,s6,t3
    28ee:	01cb3533          	sltu	a0,s6,t3
    28f2:	951a                	add	a0,a0,t1
    28f4:	1779                	addi	a4,a4,-2
    28f6:	96aa                	add	a3,a3,a0
    28f8:	bb4d                	j	26aa <__divdf3+0x31e>
    28fa:	88ae                	mv	a7,a1
    28fc:	bbc5                	j	26ec <__divdf3+0x360>
    28fe:	86ae                	mv	a3,a1
    2900:	bd31                	j	271c <__divdf3+0x390>
    2902:	001e1793          	slli	a5,t3,0x1
    2906:	01c7be33          	sltu	t3,a5,t3
    290a:	9372                	add	t1,t1,t3
    290c:	961a                	add	a2,a2,t1
    290e:	18f9                	addi	a7,a7,-2
    2910:	8e3e                	mv	t3,a5
    2912:	e7f615e3          	bne	a2,t6,277c <__divdf3+0x3f0>
    2916:	c6de07e3          	beq	t3,a3,2584 <__divdf3+0x1f8>
    291a:	0018e893          	ori	a7,a7,1
    291e:	b19d                	j	2584 <__divdf3+0x1f8>
    2920:	88be                	mv	a7,a5
    2922:	fff60ae3          	beq	a2,t6,2916 <__divdf3+0x58a>
    2926:	bd99                	j	277c <__divdf3+0x3f0>
    2928:	8836                	mv	a6,a3
    292a:	7ff00613          	li	a2,2047
    292e:	4781                	li	a5,0
    2930:	4701                	li	a4,0
    2932:	b625                	j	245a <__divdf3+0xce>
    2934:	fcde67e3          	bltu	t3,a3,2902 <__divdf3+0x576>
    2938:	88be                	mv	a7,a5
    293a:	fede10e3          	bne	t3,a3,291a <__divdf3+0x58e>
    293e:	b199                	j	2584 <__divdf3+0x1f8>

00002940 <__eqdf2>:
    2940:	0145d713          	srli	a4,a1,0x14
    2944:	001007b7          	lui	a5,0x100
    2948:	17fd                	addi	a5,a5,-1
    294a:	0146d813          	srli	a6,a3,0x14
    294e:	7ff77713          	andi	a4,a4,2047
    2952:	7ff00893          	li	a7,2047
    2956:	00b7fe33          	and	t3,a5,a1
    295a:	8eaa                	mv	t4,a0
    295c:	8ff5                	and	a5,a5,a3
    295e:	81fd                	srli	a1,a1,0x1f
    2960:	8f32                	mv	t5,a2
    2962:	7ff87813          	andi	a6,a6,2047
    2966:	82fd                	srli	a3,a3,0x1f
    2968:	01170b63          	beq	a4,a7,297e <__eqdf2+0x3e>
    296c:	4305                	li	t1,1
    296e:	01180663          	beq	a6,a7,297a <__eqdf2+0x3a>
    2972:	01071463          	bne	a4,a6,297a <__eqdf2+0x3a>
    2976:	00fe0d63          	beq	t3,a5,2990 <__eqdf2+0x50>
    297a:	851a                	mv	a0,t1
    297c:	8082                	ret
    297e:	00ae68b3          	or	a7,t3,a0
    2982:	4305                	li	t1,1
    2984:	fe089be3          	bnez	a7,297a <__eqdf2+0x3a>
    2988:	fee819e3          	bne	a6,a4,297a <__eqdf2+0x3a>
    298c:	8fd1                	or	a5,a5,a2
    298e:	f7f5                	bnez	a5,297a <__eqdf2+0x3a>
    2990:	4305                	li	t1,1
    2992:	ffee94e3          	bne	t4,t5,297a <__eqdf2+0x3a>
    2996:	4301                	li	t1,0
    2998:	fed581e3          	beq	a1,a3,297a <__eqdf2+0x3a>
    299c:	4305                	li	t1,1
    299e:	ff71                	bnez	a4,297a <__eqdf2+0x3a>
    29a0:	00ae6533          	or	a0,t3,a0
    29a4:	00a03333          	snez	t1,a0
    29a8:	bfc9                	j	297a <__eqdf2+0x3a>

000029aa <__gedf2>:
    29aa:	0145d713          	srli	a4,a1,0x14
    29ae:	001007b7          	lui	a5,0x100
    29b2:	17fd                	addi	a5,a5,-1
    29b4:	0146d813          	srli	a6,a3,0x14
    29b8:	7ff77713          	andi	a4,a4,2047
    29bc:	7ff00893          	li	a7,2047
    29c0:	00b7f333          	and	t1,a5,a1
    29c4:	8e2a                	mv	t3,a0
    29c6:	8ff5                	and	a5,a5,a3
    29c8:	81fd                	srli	a1,a1,0x1f
    29ca:	8eb2                	mv	t4,a2
    29cc:	7ff87813          	andi	a6,a6,2047
    29d0:	82fd                	srli	a3,a3,0x1f
    29d2:	03170863          	beq	a4,a7,2a02 <__gedf2+0x58>
    29d6:	03180063          	beq	a6,a7,29f6 <__gedf2+0x4c>
    29da:	eb0d                	bnez	a4,2a0c <__gedf2+0x62>
    29dc:	00a368b3          	or	a7,t1,a0
    29e0:	00081463          	bnez	a6,29e8 <__gedf2+0x3e>
    29e4:	8e5d                	or	a2,a2,a5
    29e6:	ca29                	beqz	a2,2a38 <__gedf2+0x8e>
    29e8:	04088563          	beqz	a7,2a32 <__gedf2+0x88>
    29ec:	02d58863          	beq	a1,a3,2a1c <__gedf2+0x72>
    29f0:	4505                	li	a0,1
    29f2:	ed95                	bnez	a1,2a2e <__gedf2+0x84>
    29f4:	8082                	ret
    29f6:	00c7e8b3          	or	a7,a5,a2
    29fa:	fe0880e3          	beqz	a7,29da <__gedf2+0x30>
    29fe:	5579                	li	a0,-2
    2a00:	8082                	ret
    2a02:	00a36533          	or	a0,t1,a0
    2a06:	fd65                	bnez	a0,29fe <__gedf2+0x54>
    2a08:	02e80c63          	beq	a6,a4,2a40 <__gedf2+0x96>
    2a0c:	00081463          	bnez	a6,2a14 <__gedf2+0x6a>
    2a10:	8e5d                	or	a2,a2,a5
    2a12:	de79                	beqz	a2,29f0 <__gedf2+0x46>
    2a14:	fcd59ee3          	bne	a1,a3,29f0 <__gedf2+0x46>
    2a18:	fce84ce3          	blt	a6,a4,29f0 <__gedf2+0x46>
    2a1c:	01074863          	blt	a4,a6,2a2c <__gedf2+0x82>
    2a20:	fc67e8e3          	bltu	a5,t1,29f0 <__gedf2+0x46>
    2a24:	02f30363          	beq	t1,a5,2a4a <__gedf2+0xa0>
    2a28:	00f37f63          	bgeu	t1,a5,2a46 <__gedf2+0x9c>
    2a2c:	e581                	bnez	a1,2a34 <__gedf2+0x8a>
    2a2e:	557d                	li	a0,-1
    2a30:	8082                	ret
    2a32:	def5                	beqz	a3,2a2e <__gedf2+0x84>
    2a34:	4505                	li	a0,1
    2a36:	8082                	ret
    2a38:	4501                	li	a0,0
    2a3a:	fa089be3          	bnez	a7,29f0 <__gedf2+0x46>
    2a3e:	8082                	ret
    2a40:	8e5d                	or	a2,a2,a5
    2a42:	da69                	beqz	a2,2a14 <__gedf2+0x6a>
    2a44:	bf6d                	j	29fe <__gedf2+0x54>
    2a46:	4501                	li	a0,0
    2a48:	8082                	ret
    2a4a:	fbcee3e3          	bltu	t4,t3,29f0 <__gedf2+0x46>
    2a4e:	4501                	li	a0,0
    2a50:	fbde72e3          	bgeu	t3,t4,29f4 <__gedf2+0x4a>
    2a54:	f1e5                	bnez	a1,2a34 <__gedf2+0x8a>
    2a56:	bfe1                	j	2a2e <__gedf2+0x84>

00002a58 <__muldf3>:
    2a58:	7139                	addi	sp,sp,-64
    2a5a:	d84a                	sw	s2,48(sp)
    2a5c:	0145d913          	srli	s2,a1,0x14
    2a60:	d64e                	sw	s3,44(sp)
    2a62:	d452                	sw	s4,40(sp)
    2a64:	d256                	sw	s5,36(sp)
    2a66:	00c59993          	slli	s3,a1,0xc
    2a6a:	de06                	sw	ra,60(sp)
    2a6c:	dc22                	sw	s0,56(sp)
    2a6e:	da26                	sw	s1,52(sp)
    2a70:	d05a                	sw	s6,32(sp)
    2a72:	ce5e                	sw	s7,28(sp)
    2a74:	7ff97913          	andi	s2,s2,2047
    2a78:	8a2a                	mv	s4,a0
    2a7a:	00c9d993          	srli	s3,s3,0xc
    2a7e:	01f5da93          	srli	s5,a1,0x1f
    2a82:	0e090d63          	beqz	s2,2b7c <__muldf3+0x124>
    2a86:	7ff00793          	li	a5,2047
    2a8a:	18f90663          	beq	s2,a5,2c16 <__muldf3+0x1be>
    2a8e:	01d55413          	srli	s0,a0,0x1d
    2a92:	098e                	slli	s3,s3,0x3
    2a94:	013469b3          	or	s3,s0,s3
    2a98:	00800437          	lui	s0,0x800
    2a9c:	0089e433          	or	s0,s3,s0
    2aa0:	00351493          	slli	s1,a0,0x3
    2aa4:	c0190913          	addi	s2,s2,-1023
    2aa8:	4981                	li	s3,0
    2aaa:	4b81                	li	s7,0
    2aac:	0146d713          	srli	a4,a3,0x14
    2ab0:	00c69a13          	slli	s4,a3,0xc
    2ab4:	7ff77713          	andi	a4,a4,2047
    2ab8:	85b2                	mv	a1,a2
    2aba:	00ca5a13          	srli	s4,s4,0xc
    2abe:	01f6db13          	srli	s6,a3,0x1f
    2ac2:	10070b63          	beqz	a4,2bd8 <__muldf3+0x180>
    2ac6:	7ff00793          	li	a5,2047
    2aca:	04f70363          	beq	a4,a5,2b10 <__muldf3+0xb8>
    2ace:	01d65793          	srli	a5,a2,0x1d
    2ad2:	0a0e                	slli	s4,s4,0x3
    2ad4:	0147ea33          	or	s4,a5,s4
    2ad8:	c0170713          	addi	a4,a4,-1023
    2adc:	008007b7          	lui	a5,0x800
    2ae0:	00fa67b3          	or	a5,s4,a5
    2ae4:	00361593          	slli	a1,a2,0x3
    2ae8:	993a                	add	s2,s2,a4
    2aea:	4881                	li	a7,0
    2aec:	016ac733          	xor	a4,s5,s6
    2af0:	46bd                	li	a3,15
    2af2:	853a                	mv	a0,a4
    2af4:	00190813          	addi	a6,s2,1
    2af8:	1736e863          	bltu	a3,s3,2c68 <__muldf3+0x210>
    2afc:	00003617          	auipc	a2,0x3
    2b00:	1b460613          	addi	a2,a2,436 # 5cb0 <_read+0x1e8>
    2b04:	098a                	slli	s3,s3,0x2
    2b06:	99b2                	add	s3,s3,a2
    2b08:	0009a683          	lw	a3,0(s3)
    2b0c:	96b2                	add	a3,a3,a2
    2b0e:	8682                	jr	a3
    2b10:	00ca67b3          	or	a5,s4,a2
    2b14:	7ff90913          	addi	s2,s2,2047
    2b18:	12079963          	bnez	a5,2c4a <__muldf3+0x1f2>
    2b1c:	0029e993          	ori	s3,s3,2
    2b20:	4581                	li	a1,0
    2b22:	4889                	li	a7,2
    2b24:	b7e1                	j	2aec <__muldf3+0x94>
    2b26:	4701                	li	a4,0
    2b28:	7ff00793          	li	a5,2047
    2b2c:	00080437          	lui	s0,0x80
    2b30:	4481                	li	s1,0
    2b32:	0432                	slli	s0,s0,0xc
    2b34:	07d2                	slli	a5,a5,0x14
    2b36:	8031                	srli	s0,s0,0xc
    2b38:	077e                	slli	a4,a4,0x1f
    2b3a:	8c5d                	or	s0,s0,a5
    2b3c:	8c59                	or	s0,s0,a4
    2b3e:	85a2                	mv	a1,s0
    2b40:	50f2                	lw	ra,60(sp)
    2b42:	5462                	lw	s0,56(sp)
    2b44:	8526                	mv	a0,s1
    2b46:	5942                	lw	s2,48(sp)
    2b48:	54d2                	lw	s1,52(sp)
    2b4a:	59b2                	lw	s3,44(sp)
    2b4c:	5a22                	lw	s4,40(sp)
    2b4e:	5a92                	lw	s5,36(sp)
    2b50:	5b02                	lw	s6,32(sp)
    2b52:	4bf2                	lw	s7,28(sp)
    2b54:	6121                	addi	sp,sp,64
    2b56:	8082                	ret
    2b58:	855a                	mv	a0,s6
    2b5a:	843e                	mv	s0,a5
    2b5c:	84ae                	mv	s1,a1
    2b5e:	8bc6                	mv	s7,a7
    2b60:	4789                	li	a5,2
    2b62:	0efb8d63          	beq	s7,a5,2c5c <__muldf3+0x204>
    2b66:	478d                	li	a5,3
    2b68:	fafb8fe3          	beq	s7,a5,2b26 <__muldf3+0xce>
    2b6c:	4785                	li	a5,1
    2b6e:	872a                	mv	a4,a0
    2b70:	38fb9e63          	bne	s7,a5,2f0c <__muldf3+0x4b4>
    2b74:	4781                	li	a5,0
    2b76:	4401                	li	s0,0
    2b78:	4481                	li	s1,0
    2b7a:	bf65                	j	2b32 <__muldf3+0xda>
    2b7c:	00a9e433          	or	s0,s3,a0
    2b80:	c061                	beqz	s0,2c40 <__muldf3+0x1e8>
    2b82:	c636                	sw	a3,12(sp)
    2b84:	c432                	sw	a2,8(sp)
    2b86:	2a098c63          	beqz	s3,2e3e <__muldf3+0x3e6>
    2b8a:	854e                	mv	a0,s3
    2b8c:	517010ef          	jal	ra,48a2 <__clzsi2>
    2b90:	4622                	lw	a2,8(sp)
    2b92:	46b2                	lw	a3,12(sp)
    2b94:	87aa                	mv	a5,a0
    2b96:	ff550713          	addi	a4,a0,-11
    2b9a:	4475                	li	s0,29
    2b9c:	ff878493          	addi	s1,a5,-8 # 7ffff8 <_data_lma+0x7fa0ac>
    2ba0:	8c19                	sub	s0,s0,a4
    2ba2:	009999b3          	sll	s3,s3,s1
    2ba6:	008a5433          	srl	s0,s4,s0
    2baa:	01346433          	or	s0,s0,s3
    2bae:	009a14b3          	sll	s1,s4,s1
    2bb2:	0146d713          	srli	a4,a3,0x14
    2bb6:	c0d00913          	li	s2,-1011
    2bba:	00c69a13          	slli	s4,a3,0xc
    2bbe:	7ff77713          	andi	a4,a4,2047
    2bc2:	40f90933          	sub	s2,s2,a5
    2bc6:	4981                	li	s3,0
    2bc8:	4b81                	li	s7,0
    2bca:	85b2                	mv	a1,a2
    2bcc:	00ca5a13          	srli	s4,s4,0xc
    2bd0:	01f6db13          	srli	s6,a3,0x1f
    2bd4:	ee0719e3          	bnez	a4,2ac6 <__muldf3+0x6e>
    2bd8:	00ca67b3          	or	a5,s4,a2
    2bdc:	c7b1                	beqz	a5,2c28 <__muldf3+0x1d0>
    2bde:	220a0f63          	beqz	s4,2e1c <__muldf3+0x3c4>
    2be2:	8552                	mv	a0,s4
    2be4:	c432                	sw	a2,8(sp)
    2be6:	4bd010ef          	jal	ra,48a2 <__clzsi2>
    2bea:	4622                	lw	a2,8(sp)
    2bec:	872a                	mv	a4,a0
    2bee:	ff550693          	addi	a3,a0,-11
    2bf2:	47f5                	li	a5,29
    2bf4:	ff870593          	addi	a1,a4,-8
    2bf8:	8f95                	sub	a5,a5,a3
    2bfa:	00ba1a33          	sll	s4,s4,a1
    2bfe:	00f657b3          	srl	a5,a2,a5
    2c02:	0147e7b3          	or	a5,a5,s4
    2c06:	00b615b3          	sll	a1,a2,a1
    2c0a:	40e90933          	sub	s2,s2,a4
    2c0e:	c0d90913          	addi	s2,s2,-1011
    2c12:	4881                	li	a7,0
    2c14:	bde1                	j	2aec <__muldf3+0x94>
    2c16:	00a9e433          	or	s0,s3,a0
    2c1a:	ec01                	bnez	s0,2c32 <__muldf3+0x1da>
    2c1c:	49a1                	li	s3,8
    2c1e:	4481                	li	s1,0
    2c20:	7ff00913          	li	s2,2047
    2c24:	4b89                	li	s7,2
    2c26:	b559                	j	2aac <__muldf3+0x54>
    2c28:	0019e993          	ori	s3,s3,1
    2c2c:	4581                	li	a1,0
    2c2e:	4885                	li	a7,1
    2c30:	bd75                	j	2aec <__muldf3+0x94>
    2c32:	844e                	mv	s0,s3
    2c34:	84aa                	mv	s1,a0
    2c36:	49b1                	li	s3,12
    2c38:	7ff00913          	li	s2,2047
    2c3c:	4b8d                	li	s7,3
    2c3e:	b5bd                	j	2aac <__muldf3+0x54>
    2c40:	4991                	li	s3,4
    2c42:	4481                	li	s1,0
    2c44:	4901                	li	s2,0
    2c46:	4b85                	li	s7,1
    2c48:	b595                	j	2aac <__muldf3+0x54>
    2c4a:	0039e993          	ori	s3,s3,3
    2c4e:	87d2                	mv	a5,s4
    2c50:	488d                	li	a7,3
    2c52:	bd69                	j	2aec <__muldf3+0x94>
    2c54:	4789                	li	a5,2
    2c56:	8556                	mv	a0,s5
    2c58:	f0fb97e3          	bne	s7,a5,2b66 <__muldf3+0x10e>
    2c5c:	872a                	mv	a4,a0
    2c5e:	7ff00793          	li	a5,2047
    2c62:	4401                	li	s0,0
    2c64:	4481                	li	s1,0
    2c66:	b5f1                	j	2b32 <__muldf3+0xda>
    2c68:	6ec1                	lui	t4,0x10
    2c6a:	fffe8613          	addi	a2,t4,-1 # ffff <_data_lma+0xa0b3>
    2c6e:	0104d693          	srli	a3,s1,0x10
    2c72:	0105de13          	srli	t3,a1,0x10
    2c76:	8cf1                	and	s1,s1,a2
    2c78:	8df1                	and	a1,a1,a2
    2c7a:	02958633          	mul	a2,a1,s1
    2c7e:	02b68333          	mul	t1,a3,a1
    2c82:	01065893          	srli	a7,a2,0x10
    2c86:	029e0533          	mul	a0,t3,s1
    2c8a:	951a                	add	a0,a0,t1
    2c8c:	98aa                	add	a7,a7,a0
    2c8e:	03c682b3          	mul	t0,a3,t3
    2c92:	0068f363          	bgeu	a7,t1,2c98 <__muldf3+0x240>
    2c96:	92f6                	add	t0,t0,t4
    2c98:	6fc1                	lui	t6,0x10
    2c9a:	ffff8313          	addi	t1,t6,-1 # ffff <_data_lma+0xa0b3>
    2c9e:	0067f533          	and	a0,a5,t1
    2ca2:	0107d393          	srli	t2,a5,0x10
    2ca6:	0068f7b3          	and	a5,a7,t1
    2caa:	07c2                	slli	a5,a5,0x10
    2cac:	00667333          	and	t1,a2,t1
    2cb0:	933e                	add	t1,t1,a5
    2cb2:	02950633          	mul	a2,a0,s1
    2cb6:	0108d893          	srli	a7,a7,0x10
    2cba:	02a687b3          	mul	a5,a3,a0
    2cbe:	01065f13          	srli	t5,a2,0x10
    2cc2:	029384b3          	mul	s1,t2,s1
    2cc6:	94be                	add	s1,s1,a5
    2cc8:	94fa                	add	s1,s1,t5
    2cca:	02768eb3          	mul	t4,a3,t2
    2cce:	00f4f363          	bgeu	s1,a5,2cd4 <__muldf3+0x27c>
    2cd2:	9efe                	add	t4,t4,t6
    2cd4:	6a41                	lui	s4,0x10
    2cd6:	fffa0793          	addi	a5,s4,-1 # ffff <_data_lma+0xa0b3>
    2cda:	01045f93          	srli	t6,s0,0x10
    2cde:	00f476b3          	and	a3,s0,a5
    2ce2:	00f4f9b3          	and	s3,s1,a5
    2ce6:	8e7d                	and	a2,a2,a5
    2ce8:	80c1                	srli	s1,s1,0x10
    2cea:	02d58433          	mul	s0,a1,a3
    2cee:	09c2                	slli	s3,s3,0x10
    2cf0:	01d48f33          	add	t5,s1,t4
    2cf4:	99b2                	add	s3,s3,a2
    2cf6:	98ce                	add	a7,a7,s3
    2cf8:	02de07b3          	mul	a5,t3,a3
    2cfc:	01045e93          	srli	t4,s0,0x10
    2d00:	02bf85b3          	mul	a1,t6,a1
    2d04:	97ae                	add	a5,a5,a1
    2d06:	9ebe                	add	t4,t4,a5
    2d08:	03fe0e33          	mul	t3,t3,t6
    2d0c:	00bef363          	bgeu	t4,a1,2d12 <__muldf3+0x2ba>
    2d10:	9e52                	add	t3,t3,s4
    2d12:	67c1                	lui	a5,0x10
    2d14:	fff78593          	addi	a1,a5,-1 # ffff <_data_lma+0xa0b3>
    2d18:	00bef633          	and	a2,t4,a1
    2d1c:	8c6d                	and	s0,s0,a1
    2d1e:	0642                	slli	a2,a2,0x10
    2d20:	9622                	add	a2,a2,s0
    2d22:	010ede93          	srli	t4,t4,0x10
    2d26:	02d505b3          	mul	a1,a0,a3
    2d2a:	9e76                	add	t3,t3,t4
    2d2c:	02af8533          	mul	a0,t6,a0
    2d30:	0105d413          	srli	s0,a1,0x10
    2d34:	02d386b3          	mul	a3,t2,a3
    2d38:	96aa                	add	a3,a3,a0
    2d3a:	96a2                	add	a3,a3,s0
    2d3c:	03f38fb3          	mul	t6,t2,t6
    2d40:	00a6f363          	bgeu	a3,a0,2d46 <__muldf3+0x2ee>
    2d44:	9fbe                	add	t6,t6,a5
    2d46:	6541                	lui	a0,0x10
    2d48:	157d                	addi	a0,a0,-1
    2d4a:	00a6f7b3          	and	a5,a3,a0
    2d4e:	07c2                	slli	a5,a5,0x10
    2d50:	8d6d                	and	a0,a0,a1
    2d52:	97aa                	add	a5,a5,a0
    2d54:	005885b3          	add	a1,a7,t0
    2d58:	0135b9b3          	sltu	s3,a1,s3
    2d5c:	97fa                	add	a5,a5,t5
    2d5e:	95b2                	add	a1,a1,a2
    2d60:	01378433          	add	s0,a5,s3
    2d64:	00c5b633          	sltu	a2,a1,a2
    2d68:	01c40eb3          	add	t4,s0,t3
    2d6c:	00ce8533          	add	a0,t4,a2
    2d70:	01343433          	sltu	s0,s0,s3
    2d74:	01e7b7b3          	sltu	a5,a5,t5
    2d78:	8fc1                	or	a5,a5,s0
    2d7a:	01cebe33          	sltu	t3,t4,t3
    2d7e:	0106d413          	srli	s0,a3,0x10
    2d82:	00c53633          	sltu	a2,a0,a2
    2d86:	943e                	add	s0,s0,a5
    2d88:	00ce6633          	or	a2,t3,a2
    2d8c:	00959493          	slli	s1,a1,0x9
    2d90:	9432                	add	s0,s0,a2
    2d92:	947e                	add	s0,s0,t6
    2d94:	0064e4b3          	or	s1,s1,t1
    2d98:	0426                	slli	s0,s0,0x9
    2d9a:	01755693          	srli	a3,a0,0x17
    2d9e:	009034b3          	snez	s1,s1
    2da2:	81dd                	srli	a1,a1,0x17
    2da4:	00951793          	slli	a5,a0,0x9
    2da8:	8ccd                	or	s1,s1,a1
    2daa:	8c55                	or	s0,s0,a3
    2dac:	8cdd                	or	s1,s1,a5
    2dae:	00741793          	slli	a5,s0,0x7
    2db2:	0007db63          	bgez	a5,2dc8 <__muldf3+0x370>
    2db6:	0014d793          	srli	a5,s1,0x1
    2dba:	8885                	andi	s1,s1,1
    2dbc:	01f41693          	slli	a3,s0,0x1f
    2dc0:	8cdd                	or	s1,s1,a5
    2dc2:	8cd5                	or	s1,s1,a3
    2dc4:	8005                	srli	s0,s0,0x1
    2dc6:	8942                	mv	s2,a6
    2dc8:	3ff90793          	addi	a5,s2,1023
    2dcc:	08f05963          	blez	a5,2e5e <__muldf3+0x406>
    2dd0:	0074f693          	andi	a3,s1,7
    2dd4:	ce81                	beqz	a3,2dec <__muldf3+0x394>
    2dd6:	00f4f693          	andi	a3,s1,15
    2dda:	4611                	li	a2,4
    2ddc:	00c68863          	beq	a3,a2,2dec <__muldf3+0x394>
    2de0:	00448693          	addi	a3,s1,4
    2de4:	0096b4b3          	sltu	s1,a3,s1
    2de8:	9426                	add	s0,s0,s1
    2dea:	84b6                	mv	s1,a3
    2dec:	00741693          	slli	a3,s0,0x7
    2df0:	0006d863          	bgez	a3,2e00 <__muldf3+0x3a8>
    2df4:	ff0007b7          	lui	a5,0xff000
    2df8:	17fd                	addi	a5,a5,-1
    2dfa:	8c7d                	and	s0,s0,a5
    2dfc:	40090793          	addi	a5,s2,1024
    2e00:	7fe00693          	li	a3,2046
    2e04:	0ef6cf63          	blt	a3,a5,2f02 <__muldf3+0x4aa>
    2e08:	0034d693          	srli	a3,s1,0x3
    2e0c:	01d41493          	slli	s1,s0,0x1d
    2e10:	0426                	slli	s0,s0,0x9
    2e12:	8cd5                	or	s1,s1,a3
    2e14:	8031                	srli	s0,s0,0xc
    2e16:	7ff7f793          	andi	a5,a5,2047
    2e1a:	bb21                	j	2b32 <__muldf3+0xda>
    2e1c:	8532                	mv	a0,a2
    2e1e:	c432                	sw	a2,8(sp)
    2e20:	283010ef          	jal	ra,48a2 <__clzsi2>
    2e24:	01550693          	addi	a3,a0,21 # 10015 <_data_lma+0xa0c9>
    2e28:	47f1                	li	a5,28
    2e2a:	02050713          	addi	a4,a0,32
    2e2e:	4622                	lw	a2,8(sp)
    2e30:	dcd7d1e3          	bge	a5,a3,2bf2 <__muldf3+0x19a>
    2e34:	1561                	addi	a0,a0,-8
    2e36:	00a617b3          	sll	a5,a2,a0
    2e3a:	4581                	li	a1,0
    2e3c:	b3f9                	j	2c0a <__muldf3+0x1b2>
    2e3e:	265010ef          	jal	ra,48a2 <__clzsi2>
    2e42:	01550713          	addi	a4,a0,21
    2e46:	45f1                	li	a1,28
    2e48:	02050793          	addi	a5,a0,32
    2e4c:	4622                	lw	a2,8(sp)
    2e4e:	46b2                	lw	a3,12(sp)
    2e50:	d4e5d5e3          	bge	a1,a4,2b9a <__muldf3+0x142>
    2e54:	1561                	addi	a0,a0,-8
    2e56:	00aa1433          	sll	s0,s4,a0
    2e5a:	4481                	li	s1,0
    2e5c:	bb99                	j	2bb2 <__muldf3+0x15a>
    2e5e:	4685                	li	a3,1
    2e60:	8e9d                	sub	a3,a3,a5
    2e62:	e7b1                	bnez	a5,2eae <__muldf3+0x456>
    2e64:	41e90913          	addi	s2,s2,1054
    2e68:	012497b3          	sll	a5,s1,s2
    2e6c:	00d4d4b3          	srl	s1,s1,a3
    2e70:	01241933          	sll	s2,s0,s2
    2e74:	00f037b3          	snez	a5,a5
    2e78:	009964b3          	or	s1,s2,s1
    2e7c:	8cdd                	or	s1,s1,a5
    2e7e:	0074f793          	andi	a5,s1,7
    2e82:	00d456b3          	srl	a3,s0,a3
    2e86:	cf81                	beqz	a5,2e9e <__muldf3+0x446>
    2e88:	00f4f793          	andi	a5,s1,15
    2e8c:	4611                	li	a2,4
    2e8e:	00c78863          	beq	a5,a2,2e9e <__muldf3+0x446>
    2e92:	00448793          	addi	a5,s1,4
    2e96:	0097b4b3          	sltu	s1,a5,s1
    2e9a:	96a6                	add	a3,a3,s1
    2e9c:	84be                	mv	s1,a5
    2e9e:	00869793          	slli	a5,a3,0x8
    2ea2:	0407d863          	bgez	a5,2ef2 <__muldf3+0x49a>
    2ea6:	4785                	li	a5,1
    2ea8:	4401                	li	s0,0
    2eaa:	4481                	li	s1,0
    2eac:	b159                	j	2b32 <__muldf3+0xda>
    2eae:	03800613          	li	a2,56
    2eb2:	ccd641e3          	blt	a2,a3,2b74 <__muldf3+0x11c>
    2eb6:	467d                	li	a2,31
    2eb8:	fad656e3          	bge	a2,a3,2e64 <__muldf3+0x40c>
    2ebc:	5605                	li	a2,-31
    2ebe:	40f607b3          	sub	a5,a2,a5
    2ec2:	02000593          	li	a1,32
    2ec6:	00f45633          	srl	a2,s0,a5
    2eca:	00b68763          	beq	a3,a1,2ed8 <__muldf3+0x480>
    2ece:	43e90913          	addi	s2,s2,1086
    2ed2:	012417b3          	sll	a5,s0,s2
    2ed6:	8cdd                	or	s1,s1,a5
    2ed8:	009034b3          	snez	s1,s1
    2edc:	8cd1                	or	s1,s1,a2
    2ede:	0074f693          	andi	a3,s1,7
    2ee2:	4401                	li	s0,0
    2ee4:	ca99                	beqz	a3,2efa <__muldf3+0x4a2>
    2ee6:	00f4f793          	andi	a5,s1,15
    2eea:	4611                	li	a2,4
    2eec:	4681                	li	a3,0
    2eee:	fac792e3          	bne	a5,a2,2e92 <__muldf3+0x43a>
    2ef2:	00969413          	slli	s0,a3,0x9
    2ef6:	8031                	srli	s0,s0,0xc
    2ef8:	06f6                	slli	a3,a3,0x1d
    2efa:	808d                	srli	s1,s1,0x3
    2efc:	8cd5                	or	s1,s1,a3
    2efe:	4781                	li	a5,0
    2f00:	b90d                	j	2b32 <__muldf3+0xda>
    2f02:	7ff00793          	li	a5,2047
    2f06:	4401                	li	s0,0
    2f08:	4481                	li	s1,0
    2f0a:	b125                	j	2b32 <__muldf3+0xda>
    2f0c:	8942                	mv	s2,a6
    2f0e:	bd6d                	j	2dc8 <__muldf3+0x370>

00002f10 <__subdf3>:
    2f10:	00100737          	lui	a4,0x100
    2f14:	177d                	addi	a4,a4,-1
    2f16:	1101                	addi	sp,sp,-32
    2f18:	00b77333          	and	t1,a4,a1
    2f1c:	0146d893          	srli	a7,a3,0x14
    2f20:	8f75                	and	a4,a4,a3
    2f22:	01d65e93          	srli	t4,a2,0x1d
    2f26:	cc22                	sw	s0,24(sp)
    2f28:	ca26                	sw	s1,20(sp)
    2f2a:	030e                	slli	t1,t1,0x3
    2f2c:	0145d493          	srli	s1,a1,0x14
    2f30:	01d55793          	srli	a5,a0,0x1d
    2f34:	070e                	slli	a4,a4,0x3
    2f36:	ce06                	sw	ra,28(sp)
    2f38:	c84a                	sw	s2,16(sp)
    2f3a:	c64e                	sw	s3,12(sp)
    2f3c:	7ff8f893          	andi	a7,a7,2047
    2f40:	7ff00e13          	li	t3,2047
    2f44:	00eee733          	or	a4,t4,a4
    2f48:	7ff4f493          	andi	s1,s1,2047
    2f4c:	01f5d413          	srli	s0,a1,0x1f
    2f50:	0067e333          	or	t1,a5,t1
    2f54:	00351f13          	slli	t5,a0,0x3
    2f58:	82fd                	srli	a3,a3,0x1f
    2f5a:	00361e93          	slli	t4,a2,0x3
    2f5e:	19c88063          	beq	a7,t3,30de <__subdf3+0x1ce>
    2f62:	0016c693          	xori	a3,a3,1
    2f66:	411485b3          	sub	a1,s1,a7
    2f6a:	12d40563          	beq	s0,a3,3094 <__subdf3+0x184>
    2f6e:	18b05163          	blez	a1,30f0 <__subdf3+0x1e0>
    2f72:	1a088b63          	beqz	a7,3128 <__subdf3+0x218>
    2f76:	008007b7          	lui	a5,0x800
    2f7a:	8f5d                	or	a4,a4,a5
    2f7c:	59c48163          	beq	s1,t3,34fe <__subdf3+0x5ee>
    2f80:	03800793          	li	a5,56
    2f84:	34b7c463          	blt	a5,a1,32cc <__subdf3+0x3bc>
    2f88:	47fd                	li	a5,31
    2f8a:	48b7c563          	blt	a5,a1,3414 <__subdf3+0x504>
    2f8e:	02000793          	li	a5,32
    2f92:	8f8d                	sub	a5,a5,a1
    2f94:	00bed9b3          	srl	s3,t4,a1
    2f98:	00f71833          	sll	a6,a4,a5
    2f9c:	00fe9eb3          	sll	t4,t4,a5
    2fa0:	01386833          	or	a6,a6,s3
    2fa4:	00b75733          	srl	a4,a4,a1
    2fa8:	01d039b3          	snez	s3,t4
    2fac:	01386833          	or	a6,a6,s3
    2fb0:	40e30333          	sub	t1,t1,a4
    2fb4:	410f09b3          	sub	s3,t5,a6
    2fb8:	013f37b3          	sltu	a5,t5,s3
    2fbc:	40f30633          	sub	a2,t1,a5
    2fc0:	00861793          	slli	a5,a2,0x8
    2fc4:	2407d363          	bgez	a5,320a <__subdf3+0x2fa>
    2fc8:	00800937          	lui	s2,0x800
    2fcc:	197d                	addi	s2,s2,-1
    2fce:	01267933          	and	s2,a2,s2
    2fd2:	2c090f63          	beqz	s2,32b0 <__subdf3+0x3a0>
    2fd6:	854a                	mv	a0,s2
    2fd8:	0cb010ef          	jal	ra,48a2 <__clzsi2>
    2fdc:	ff850713          	addi	a4,a0,-8
    2fe0:	02000793          	li	a5,32
    2fe4:	8f99                	sub	a5,a5,a4
    2fe6:	00f9d7b3          	srl	a5,s3,a5
    2fea:	00e91633          	sll	a2,s2,a4
    2fee:	8fd1                	or	a5,a5,a2
    2ff0:	00e999b3          	sll	s3,s3,a4
    2ff4:	2a974463          	blt	a4,s1,329c <__subdf3+0x38c>
    2ff8:	8f05                	sub	a4,a4,s1
    2ffa:	00170613          	addi	a2,a4,1 # 100001 <_data_lma+0xfa0b5>
    2ffe:	46fd                	li	a3,31
    3000:	3ac6c563          	blt	a3,a2,33aa <__subdf3+0x49a>
    3004:	02000713          	li	a4,32
    3008:	8f11                	sub	a4,a4,a2
    300a:	00c9d6b3          	srl	a3,s3,a2
    300e:	00e99833          	sll	a6,s3,a4
    3012:	00e79733          	sll	a4,a5,a4
    3016:	8f55                	or	a4,a4,a3
    3018:	01003833          	snez	a6,a6
    301c:	010769b3          	or	s3,a4,a6
    3020:	00c7d633          	srl	a2,a5,a2
    3024:	4481                	li	s1,0
    3026:	0079f793          	andi	a5,s3,7
    302a:	cf81                	beqz	a5,3042 <__subdf3+0x132>
    302c:	00f9f693          	andi	a3,s3,15
    3030:	4791                	li	a5,4
    3032:	00f68863          	beq	a3,a5,3042 <__subdf3+0x132>
    3036:	00498693          	addi	a3,s3,4
    303a:	0136b833          	sltu	a6,a3,s3
    303e:	9642                	add	a2,a2,a6
    3040:	89b6                	mv	s3,a3
    3042:	00861793          	slli	a5,a2,0x8
    3046:	1c07d663          	bgez	a5,3212 <__subdf3+0x302>
    304a:	00148713          	addi	a4,s1,1
    304e:	7ff00793          	li	a5,2047
    3052:	8805                	andi	s0,s0,1
    3054:	20f70663          	beq	a4,a5,3260 <__subdf3+0x350>
    3058:	ff8007b7          	lui	a5,0xff800
    305c:	17fd                	addi	a5,a5,-1
    305e:	8ff1                	and	a5,a5,a2
    3060:	01d79813          	slli	a6,a5,0x1d
    3064:	0039d993          	srli	s3,s3,0x3
    3068:	07a6                	slli	a5,a5,0x9
    306a:	01386833          	or	a6,a6,s3
    306e:	83b1                	srli	a5,a5,0xc
    3070:	7ff77713          	andi	a4,a4,2047
    3074:	00c79693          	slli	a3,a5,0xc
    3078:	0752                	slli	a4,a4,0x14
    307a:	82b1                	srli	a3,a3,0xc
    307c:	047e                	slli	s0,s0,0x1f
    307e:	8ed9                	or	a3,a3,a4
    3080:	8ec1                	or	a3,a3,s0
    3082:	40f2                	lw	ra,28(sp)
    3084:	4462                	lw	s0,24(sp)
    3086:	44d2                	lw	s1,20(sp)
    3088:	4942                	lw	s2,16(sp)
    308a:	49b2                	lw	s3,12(sp)
    308c:	8542                	mv	a0,a6
    308e:	85b6                	mv	a1,a3
    3090:	6105                	addi	sp,sp,32
    3092:	8082                	ret
    3094:	0ab05663          	blez	a1,3140 <__subdf3+0x230>
    3098:	12088a63          	beqz	a7,31cc <__subdf3+0x2bc>
    309c:	008007b7          	lui	a5,0x800
    30a0:	8f5d                	or	a4,a4,a5
    30a2:	2dc48763          	beq	s1,t3,3370 <__subdf3+0x460>
    30a6:	03800793          	li	a5,56
    30aa:	18b7c763          	blt	a5,a1,3238 <__subdf3+0x328>
    30ae:	47fd                	li	a5,31
    30b0:	3cb7d263          	bge	a5,a1,3474 <__subdf3+0x564>
    30b4:	fe058813          	addi	a6,a1,-32 # ffe0 <_data_lma+0xa094>
    30b8:	02000793          	li	a5,32
    30bc:	010759b3          	srl	s3,a4,a6
    30c0:	00f58a63          	beq	a1,a5,30d4 <__subdf3+0x1c4>
    30c4:	04000793          	li	a5,64
    30c8:	40b785b3          	sub	a1,a5,a1
    30cc:	00b71733          	sll	a4,a4,a1
    30d0:	00eeeeb3          	or	t4,t4,a4
    30d4:	01d03833          	snez	a6,t4
    30d8:	01386833          	or	a6,a6,s3
    30dc:	a295                	j	3240 <__subdf3+0x330>
    30de:	01d767b3          	or	a5,a4,t4
    30e2:	80148593          	addi	a1,s1,-2047
    30e6:	e399                	bnez	a5,30ec <__subdf3+0x1dc>
    30e8:	0016c693          	xori	a3,a3,1
    30ec:	04d40a63          	beq	s0,a3,3140 <__subdf3+0x230>
    30f0:	e1d1                	bnez	a1,3174 <__subdf3+0x264>
    30f2:	00148793          	addi	a5,s1,1
    30f6:	7fe7f793          	andi	a5,a5,2046
    30fa:	1e079963          	bnez	a5,32ec <__subdf3+0x3dc>
    30fe:	01e367b3          	or	a5,t1,t5
    3102:	01d76833          	or	a6,a4,t4
    3106:	16049263          	bnez	s1,326a <__subdf3+0x35a>
    310a:	3c078263          	beqz	a5,34ce <__subdf3+0x5be>
    310e:	42081663          	bnez	a6,353a <__subdf3+0x62a>
    3112:	00351813          	slli	a6,a0,0x3
    3116:	01d31693          	slli	a3,t1,0x1d
    311a:	00385813          	srli	a6,a6,0x3
    311e:	0106e833          	or	a6,a3,a6
    3122:	00335793          	srli	a5,t1,0x3
    3126:	a219                	j	322c <__subdf3+0x31c>
    3128:	01d767b3          	or	a5,a4,t4
    312c:	1a078563          	beqz	a5,32d6 <__subdf3+0x3c6>
    3130:	fff58793          	addi	a5,a1,-1
    3134:	3a078b63          	beqz	a5,34ea <__subdf3+0x5da>
    3138:	23c58c63          	beq	a1,t3,3370 <__subdf3+0x460>
    313c:	85be                	mv	a1,a5
    313e:	b589                	j	2f80 <__subdf3+0x70>
    3140:	1c059963          	bnez	a1,3312 <__subdf3+0x402>
    3144:	00148693          	addi	a3,s1,1
    3148:	7fe6f793          	andi	a5,a3,2046
    314c:	efc1                	bnez	a5,31e4 <__subdf3+0x2d4>
    314e:	01e367b3          	or	a5,t1,t5
    3152:	36049063          	bnez	s1,34b2 <__subdf3+0x5a2>
    3156:	44078d63          	beqz	a5,35b0 <__subdf3+0x6a0>
    315a:	01d767b3          	or	a5,a4,t4
    315e:	46079463          	bnez	a5,35c6 <__subdf3+0x6b6>
    3162:	050e                	slli	a0,a0,0x3
    3164:	01d31813          	slli	a6,t1,0x1d
    3168:	810d                	srli	a0,a0,0x3
    316a:	00a86833          	or	a6,a6,a0
    316e:	00335793          	srli	a5,t1,0x3
    3172:	a86d                	j	322c <__subdf3+0x31c>
    3174:	409885b3          	sub	a1,a7,s1
    3178:	20049763          	bnez	s1,3386 <__subdf3+0x476>
    317c:	01e367b3          	or	a5,t1,t5
    3180:	30078d63          	beqz	a5,349a <__subdf3+0x58a>
    3184:	fff58793          	addi	a5,a1,-1
    3188:	40078963          	beqz	a5,359a <__subdf3+0x68a>
    318c:	7ff00513          	li	a0,2047
    3190:	20a58363          	beq	a1,a0,3396 <__subdf3+0x486>
    3194:	85be                	mv	a1,a5
    3196:	03800793          	li	a5,56
    319a:	2ab7c263          	blt	a5,a1,343e <__subdf3+0x52e>
    319e:	47fd                	li	a5,31
    31a0:	3cb7c863          	blt	a5,a1,3570 <__subdf3+0x660>
    31a4:	02000793          	li	a5,32
    31a8:	8f8d                	sub	a5,a5,a1
    31aa:	00f31833          	sll	a6,t1,a5
    31ae:	00bf5633          	srl	a2,t5,a1
    31b2:	00ff17b3          	sll	a5,t5,a5
    31b6:	00c86833          	or	a6,a6,a2
    31ba:	00f039b3          	snez	s3,a5
    31be:	00b35333          	srl	t1,t1,a1
    31c2:	01386833          	or	a6,a6,s3
    31c6:	40670733          	sub	a4,a4,t1
    31ca:	acb5                	j	3446 <__subdf3+0x536>
    31cc:	01d767b3          	or	a5,a4,t4
    31d0:	10078363          	beqz	a5,32d6 <__subdf3+0x3c6>
    31d4:	fff58793          	addi	a5,a1,-1
    31d8:	1e078f63          	beqz	a5,33d6 <__subdf3+0x4c6>
    31dc:	2fc58063          	beq	a1,t3,34bc <__subdf3+0x5ac>
    31e0:	85be                	mv	a1,a5
    31e2:	b5d1                	j	30a6 <__subdf3+0x196>
    31e4:	7ff00793          	li	a5,2047
    31e8:	06f68b63          	beq	a3,a5,325e <__subdf3+0x34e>
    31ec:	9efa                	add	t4,t4,t5
    31ee:	01eeb633          	sltu	a2,t4,t5
    31f2:	00e307b3          	add	a5,t1,a4
    31f6:	97b2                	add	a5,a5,a2
    31f8:	01f79813          	slli	a6,a5,0x1f
    31fc:	001ede93          	srli	t4,t4,0x1
    3200:	01d869b3          	or	s3,a6,t4
    3204:	0017d613          	srli	a2,a5,0x1
    3208:	84b6                	mv	s1,a3
    320a:	0079f793          	andi	a5,s3,7
    320e:	e0079fe3          	bnez	a5,302c <__subdf3+0x11c>
    3212:	01d61793          	slli	a5,a2,0x1d
    3216:	0039d813          	srli	a6,s3,0x3
    321a:	00f86833          	or	a6,a6,a5
    321e:	85a6                	mv	a1,s1
    3220:	00365793          	srli	a5,a2,0x3
    3224:	7ff00713          	li	a4,2047
    3228:	06e58063          	beq	a1,a4,3288 <__subdf3+0x378>
    322c:	07b2                	slli	a5,a5,0xc
    322e:	83b1                	srli	a5,a5,0xc
    3230:	7ff5f713          	andi	a4,a1,2047
    3234:	8805                	andi	s0,s0,1
    3236:	bd3d                	j	3074 <__subdf3+0x164>
    3238:	01d76733          	or	a4,a4,t4
    323c:	00e03833          	snez	a6,a4
    3240:	01e809b3          	add	s3,a6,t5
    3244:	01e9b7b3          	sltu	a5,s3,t5
    3248:	00678633          	add	a2,a5,t1
    324c:	00861793          	slli	a5,a2,0x8
    3250:	fa07dde3          	bgez	a5,320a <__subdf3+0x2fa>
    3254:	0485                	addi	s1,s1,1
    3256:	7ff00793          	li	a5,2047
    325a:	18f49c63          	bne	s1,a5,33f2 <__subdf3+0x4e2>
    325e:	8805                	andi	s0,s0,1
    3260:	7ff00713          	li	a4,2047
    3264:	4781                	li	a5,0
    3266:	4801                	li	a6,0
    3268:	b531                	j	3074 <__subdf3+0x164>
    326a:	10079163          	bnez	a5,336c <__subdf3+0x45c>
    326e:	3c080163          	beqz	a6,3630 <__subdf3+0x720>
    3272:	00361813          	slli	a6,a2,0x3
    3276:	01d71793          	slli	a5,a4,0x1d
    327a:	00385813          	srli	a6,a6,0x3
    327e:	00f86833          	or	a6,a6,a5
    3282:	8436                	mv	s0,a3
    3284:	00375793          	srli	a5,a4,0x3
    3288:	00f867b3          	or	a5,a6,a5
    328c:	dbe9                	beqz	a5,325e <__subdf3+0x34e>
    328e:	4401                	li	s0,0
    3290:	7ff00713          	li	a4,2047
    3294:	000807b7          	lui	a5,0x80
    3298:	4801                	li	a6,0
    329a:	bbe9                	j	3074 <__subdf3+0x164>
    329c:	ff800637          	lui	a2,0xff800
    32a0:	167d                	addi	a2,a2,-1
    32a2:	8e7d                	and	a2,a2,a5
    32a4:	0079f793          	andi	a5,s3,7
    32a8:	8c99                	sub	s1,s1,a4
    32aa:	d80791e3          	bnez	a5,302c <__subdf3+0x11c>
    32ae:	b795                	j	3212 <__subdf3+0x302>
    32b0:	854e                	mv	a0,s3
    32b2:	5f0010ef          	jal	ra,48a2 <__clzsi2>
    32b6:	01850713          	addi	a4,a0,24
    32ba:	47fd                	li	a5,31
    32bc:	d2e7d2e3          	bge	a5,a4,2fe0 <__subdf3+0xd0>
    32c0:	ff850613          	addi	a2,a0,-8
    32c4:	00c997b3          	sll	a5,s3,a2
    32c8:	4981                	li	s3,0
    32ca:	b32d                	j	2ff4 <__subdf3+0xe4>
    32cc:	01d76833          	or	a6,a4,t4
    32d0:	01003833          	snez	a6,a6
    32d4:	b1c5                	j	2fb4 <__subdf3+0xa4>
    32d6:	00351813          	slli	a6,a0,0x3
    32da:	01d31793          	slli	a5,t1,0x1d
    32de:	00385813          	srli	a6,a6,0x3
    32e2:	00f86833          	or	a6,a6,a5
    32e6:	00335793          	srli	a5,t1,0x3
    32ea:	bf2d                	j	3224 <__subdf3+0x314>
    32ec:	41df09b3          	sub	s3,t5,t4
    32f0:	40e30933          	sub	s2,t1,a4
    32f4:	013f3633          	sltu	a2,t5,s3
    32f8:	40c90933          	sub	s2,s2,a2
    32fc:	00891793          	slli	a5,s2,0x8
    3300:	2007ca63          	bltz	a5,3514 <__subdf3+0x604>
    3304:	0129e833          	or	a6,s3,s2
    3308:	cc0815e3          	bnez	a6,2fd2 <__subdf3+0xc2>
    330c:	4781                	li	a5,0
    330e:	4401                	li	s0,0
    3310:	bf31                	j	322c <__subdf3+0x31c>
    3312:	409885b3          	sub	a1,a7,s1
    3316:	14048163          	beqz	s1,3458 <__subdf3+0x548>
    331a:	008006b7          	lui	a3,0x800
    331e:	7ff00793          	li	a5,2047
    3322:	00d36333          	or	t1,t1,a3
    3326:	20f88163          	beq	a7,a5,3528 <__subdf3+0x618>
    332a:	03800793          	li	a5,56
    332e:	22b7cc63          	blt	a5,a1,3566 <__subdf3+0x656>
    3332:	47fd                	li	a5,31
    3334:	2cb7c963          	blt	a5,a1,3606 <__subdf3+0x6f6>
    3338:	02000793          	li	a5,32
    333c:	8f8d                	sub	a5,a5,a1
    333e:	00f31833          	sll	a6,t1,a5
    3342:	00bf56b3          	srl	a3,t5,a1
    3346:	00ff17b3          	sll	a5,t5,a5
    334a:	00d86833          	or	a6,a6,a3
    334e:	00f039b3          	snez	s3,a5
    3352:	00b35333          	srl	t1,t1,a1
    3356:	01386833          	or	a6,a6,s3
    335a:	971a                	add	a4,a4,t1
    335c:	01d809b3          	add	s3,a6,t4
    3360:	01d9b7b3          	sltu	a5,s3,t4
    3364:	00e78633          	add	a2,a5,a4
    3368:	84c6                	mv	s1,a7
    336a:	b5cd                	j	324c <__subdf3+0x33c>
    336c:	f20811e3          	bnez	a6,328e <__subdf3+0x37e>
    3370:	00351813          	slli	a6,a0,0x3
    3374:	01d31793          	slli	a5,t1,0x1d
    3378:	00385813          	srli	a6,a6,0x3
    337c:	00f86833          	or	a6,a6,a5
    3380:	00335793          	srli	a5,t1,0x3
    3384:	b711                	j	3288 <__subdf3+0x378>
    3386:	00800537          	lui	a0,0x800
    338a:	7ff00793          	li	a5,2047
    338e:	00a36333          	or	t1,t1,a0
    3392:	e0f892e3          	bne	a7,a5,3196 <__subdf3+0x286>
    3396:	060e                	slli	a2,a2,0x3
    3398:	01d71813          	slli	a6,a4,0x1d
    339c:	820d                	srli	a2,a2,0x3
    339e:	00c86833          	or	a6,a6,a2
    33a2:	00375793          	srli	a5,a4,0x3
    33a6:	8436                	mv	s0,a3
    33a8:	b5c5                	j	3288 <__subdf3+0x378>
    33aa:	1705                	addi	a4,a4,-31
    33ac:	02000693          	li	a3,32
    33b0:	00e7d733          	srl	a4,a5,a4
    33b4:	00d60a63          	beq	a2,a3,33c8 <__subdf3+0x4b8>
    33b8:	04000693          	li	a3,64
    33bc:	40c68633          	sub	a2,a3,a2
    33c0:	00c79633          	sll	a2,a5,a2
    33c4:	00c9e9b3          	or	s3,s3,a2
    33c8:	01303833          	snez	a6,s3
    33cc:	00e869b3          	or	s3,a6,a4
    33d0:	4601                	li	a2,0
    33d2:	4481                	li	s1,0
    33d4:	bd1d                	j	320a <__subdf3+0x2fa>
    33d6:	01df09b3          	add	s3,t5,t4
    33da:	00e307b3          	add	a5,t1,a4
    33de:	01e9bf33          	sltu	t5,s3,t5
    33e2:	01e78633          	add	a2,a5,t5
    33e6:	00861793          	slli	a5,a2,0x8
    33ea:	4485                	li	s1,1
    33ec:	e007dfe3          	bgez	a5,320a <__subdf3+0x2fa>
    33f0:	4489                	li	s1,2
    33f2:	ff8007b7          	lui	a5,0xff800
    33f6:	17fd                	addi	a5,a5,-1
    33f8:	8ff1                	and	a5,a5,a2
    33fa:	0019d713          	srli	a4,s3,0x1
    33fe:	0019f813          	andi	a6,s3,1
    3402:	01076833          	or	a6,a4,a6
    3406:	01f79993          	slli	s3,a5,0x1f
    340a:	0109e9b3          	or	s3,s3,a6
    340e:	0017d613          	srli	a2,a5,0x1
    3412:	b911                	j	3026 <__subdf3+0x116>
    3414:	fe058813          	addi	a6,a1,-32
    3418:	02000793          	li	a5,32
    341c:	010759b3          	srl	s3,a4,a6
    3420:	00f58a63          	beq	a1,a5,3434 <__subdf3+0x524>
    3424:	04000793          	li	a5,64
    3428:	40b785b3          	sub	a1,a5,a1
    342c:	00b71733          	sll	a4,a4,a1
    3430:	00eeeeb3          	or	t4,t4,a4
    3434:	01d03833          	snez	a6,t4
    3438:	01386833          	or	a6,a6,s3
    343c:	bea5                	j	2fb4 <__subdf3+0xa4>
    343e:	01e36333          	or	t1,t1,t5
    3442:	00603833          	snez	a6,t1
    3446:	410e89b3          	sub	s3,t4,a6
    344a:	013eb7b3          	sltu	a5,t4,s3
    344e:	40f70633          	sub	a2,a4,a5
    3452:	84c6                	mv	s1,a7
    3454:	8436                	mv	s0,a3
    3456:	b6ad                	j	2fc0 <__subdf3+0xb0>
    3458:	01e367b3          	or	a5,t1,t5
    345c:	18078763          	beqz	a5,35ea <__subdf3+0x6da>
    3460:	fff58793          	addi	a5,a1,-1
    3464:	1c078c63          	beqz	a5,363c <__subdf3+0x72c>
    3468:	7ff00693          	li	a3,2047
    346c:	0ad58e63          	beq	a1,a3,3528 <__subdf3+0x618>
    3470:	85be                	mv	a1,a5
    3472:	bd65                	j	332a <__subdf3+0x41a>
    3474:	02000793          	li	a5,32
    3478:	8f8d                	sub	a5,a5,a1
    347a:	00bed9b3          	srl	s3,t4,a1
    347e:	00f71833          	sll	a6,a4,a5
    3482:	00fe9eb3          	sll	t4,t4,a5
    3486:	01386833          	or	a6,a6,s3
    348a:	00b75733          	srl	a4,a4,a1
    348e:	01d039b3          	snez	s3,t4
    3492:	01386833          	or	a6,a6,s3
    3496:	933a                	add	t1,t1,a4
    3498:	b365                	j	3240 <__subdf3+0x330>
    349a:	00361813          	slli	a6,a2,0x3
    349e:	01d71793          	slli	a5,a4,0x1d
    34a2:	00385813          	srli	a6,a6,0x3
    34a6:	0107e833          	or	a6,a5,a6
    34aa:	8436                	mv	s0,a3
    34ac:	00375793          	srli	a5,a4,0x3
    34b0:	bb95                	j	3224 <__subdf3+0x314>
    34b2:	cbbd                	beqz	a5,3528 <__subdf3+0x618>
    34b4:	01d76733          	or	a4,a4,t4
    34b8:	dc071be3          	bnez	a4,328e <__subdf3+0x37e>
    34bc:	050e                	slli	a0,a0,0x3
    34be:	01d31813          	slli	a6,t1,0x1d
    34c2:	810d                	srli	a0,a0,0x3
    34c4:	00a86833          	or	a6,a6,a0
    34c8:	00335793          	srli	a5,t1,0x3
    34cc:	bb75                	j	3288 <__subdf3+0x378>
    34ce:	e2080fe3          	beqz	a6,330c <__subdf3+0x3fc>
    34d2:	00361813          	slli	a6,a2,0x3
    34d6:	01d71793          	slli	a5,a4,0x1d
    34da:	00385813          	srli	a6,a6,0x3
    34de:	00f86833          	or	a6,a6,a5
    34e2:	8436                	mv	s0,a3
    34e4:	00375793          	srli	a5,a4,0x3
    34e8:	b391                	j	322c <__subdf3+0x31c>
    34ea:	41df09b3          	sub	s3,t5,t4
    34ee:	40e307b3          	sub	a5,t1,a4
    34f2:	013f3f33          	sltu	t5,t5,s3
    34f6:	41e78633          	sub	a2,a5,t5
    34fa:	4485                	li	s1,1
    34fc:	b4d1                	j	2fc0 <__subdf3+0xb0>
    34fe:	00351813          	slli	a6,a0,0x3
    3502:	01d31693          	slli	a3,t1,0x1d
    3506:	00385813          	srli	a6,a6,0x3
    350a:	0106e833          	or	a6,a3,a6
    350e:	00335793          	srli	a5,t1,0x3
    3512:	bb9d                	j	3288 <__subdf3+0x378>
    3514:	41ee89b3          	sub	s3,t4,t5
    3518:	40670633          	sub	a2,a4,t1
    351c:	013eb933          	sltu	s2,t4,s3
    3520:	41260933          	sub	s2,a2,s2
    3524:	8436                	mv	s0,a3
    3526:	b475                	j	2fd2 <__subdf3+0xc2>
    3528:	060e                	slli	a2,a2,0x3
    352a:	01d71813          	slli	a6,a4,0x1d
    352e:	820d                	srli	a2,a2,0x3
    3530:	00c86833          	or	a6,a6,a2
    3534:	00375793          	srli	a5,a4,0x3
    3538:	bb81                	j	3288 <__subdf3+0x378>
    353a:	41df09b3          	sub	s3,t5,t4
    353e:	40e307b3          	sub	a5,t1,a4
    3542:	013f3633          	sltu	a2,t5,s3
    3546:	40c78633          	sub	a2,a5,a2
    354a:	00861793          	slli	a5,a2,0x8
    354e:	0a07d763          	bgez	a5,35fc <__subdf3+0x6ec>
    3552:	41ee89b3          	sub	s3,t4,t5
    3556:	406707b3          	sub	a5,a4,t1
    355a:	013ebeb3          	sltu	t4,t4,s3
    355e:	41d78633          	sub	a2,a5,t4
    3562:	8436                	mv	s0,a3
    3564:	b4c9                	j	3026 <__subdf3+0x116>
    3566:	01e36333          	or	t1,t1,t5
    356a:	00603833          	snez	a6,t1
    356e:	b3fd                	j	335c <__subdf3+0x44c>
    3570:	fe058813          	addi	a6,a1,-32
    3574:	02000793          	li	a5,32
    3578:	010359b3          	srl	s3,t1,a6
    357c:	00f58a63          	beq	a1,a5,3590 <__subdf3+0x680>
    3580:	04000793          	li	a5,64
    3584:	40b785b3          	sub	a1,a5,a1
    3588:	00b31333          	sll	t1,t1,a1
    358c:	006f6f33          	or	t5,t5,t1
    3590:	01e03833          	snez	a6,t5
    3594:	01386833          	or	a6,a6,s3
    3598:	b57d                	j	3446 <__subdf3+0x536>
    359a:	41ee89b3          	sub	s3,t4,t5
    359e:	406707b3          	sub	a5,a4,t1
    35a2:	013ebeb3          	sltu	t4,t4,s3
    35a6:	41d78633          	sub	a2,a5,t4
    35aa:	8436                	mv	s0,a3
    35ac:	4485                	li	s1,1
    35ae:	bc09                	j	2fc0 <__subdf3+0xb0>
    35b0:	00361813          	slli	a6,a2,0x3
    35b4:	01d71793          	slli	a5,a4,0x1d
    35b8:	00385813          	srli	a6,a6,0x3
    35bc:	00f86833          	or	a6,a6,a5
    35c0:	00375793          	srli	a5,a4,0x3
    35c4:	b1a5                	j	322c <__subdf3+0x31c>
    35c6:	01df09b3          	add	s3,t5,t4
    35ca:	00e307b3          	add	a5,t1,a4
    35ce:	01e9bf33          	sltu	t5,s3,t5
    35d2:	01e78633          	add	a2,a5,t5
    35d6:	00861793          	slli	a5,a2,0x8
    35da:	c207d8e3          	bgez	a5,320a <__subdf3+0x2fa>
    35de:	ff8007b7          	lui	a5,0xff800
    35e2:	17fd                	addi	a5,a5,-1
    35e4:	8e7d                	and	a2,a2,a5
    35e6:	4485                	li	s1,1
    35e8:	b10d                	j	320a <__subdf3+0x2fa>
    35ea:	060e                	slli	a2,a2,0x3
    35ec:	01d71813          	slli	a6,a4,0x1d
    35f0:	820d                	srli	a2,a2,0x3
    35f2:	00c86833          	or	a6,a6,a2
    35f6:	00375793          	srli	a5,a4,0x3
    35fa:	b12d                	j	3224 <__subdf3+0x314>
    35fc:	00c9e833          	or	a6,s3,a2
    3600:	d00806e3          	beqz	a6,330c <__subdf3+0x3fc>
    3604:	b119                	j	320a <__subdf3+0x2fa>
    3606:	fe058813          	addi	a6,a1,-32
    360a:	02000793          	li	a5,32
    360e:	010359b3          	srl	s3,t1,a6
    3612:	00f58a63          	beq	a1,a5,3626 <__subdf3+0x716>
    3616:	04000793          	li	a5,64
    361a:	40b785b3          	sub	a1,a5,a1
    361e:	00b31333          	sll	t1,t1,a1
    3622:	006f6f33          	or	t5,t5,t1
    3626:	01e03833          	snez	a6,t5
    362a:	01386833          	or	a6,a6,s3
    362e:	b33d                	j	335c <__subdf3+0x44c>
    3630:	4401                	li	s0,0
    3632:	7ff00713          	li	a4,2047
    3636:	000807b7          	lui	a5,0x80
    363a:	bc2d                	j	3074 <__subdf3+0x164>
    363c:	01df09b3          	add	s3,t5,t4
    3640:	00e307b3          	add	a5,t1,a4
    3644:	01d9beb3          	sltu	t4,s3,t4
    3648:	01d78633          	add	a2,a5,t4
    364c:	bb69                	j	33e6 <__subdf3+0x4d6>

0000364e <__unorddf2>:
    364e:	0145d713          	srli	a4,a1,0x14
    3652:	001007b7          	lui	a5,0x100
    3656:	17fd                	addi	a5,a5,-1
    3658:	fff74713          	not	a4,a4
    365c:	0146d813          	srli	a6,a3,0x14
    3660:	8dfd                	and	a1,a1,a5
    3662:	8ff5                	and	a5,a5,a3
    3664:	01571693          	slli	a3,a4,0x15
    3668:	7ff87813          	andi	a6,a6,2047
    366c:	ca99                	beqz	a3,3682 <__unorddf2+0x34>
    366e:	7ff00713          	li	a4,2047
    3672:	4501                	li	a0,0
    3674:	00e80363          	beq	a6,a4,367a <__unorddf2+0x2c>
    3678:	8082                	ret
    367a:	8fd1                	or	a5,a5,a2
    367c:	00f03533          	snez	a0,a5
    3680:	8082                	ret
    3682:	8dc9                	or	a1,a1,a0
    3684:	4505                	li	a0,1
    3686:	d5e5                	beqz	a1,366e <__unorddf2+0x20>
    3688:	8082                	ret

0000368a <__fixunsdfsi>:
    368a:	0145d793          	srli	a5,a1,0x14
    368e:	001006b7          	lui	a3,0x100
    3692:	fff68713          	addi	a4,a3,-1 # fffff <_data_lma+0xfa0b3>
    3696:	7ff7f793          	andi	a5,a5,2047
    369a:	3fe00613          	li	a2,1022
    369e:	882a                	mv	a6,a0
    36a0:	8f6d                	and	a4,a4,a1
    36a2:	4501                	li	a0,0
    36a4:	81fd                	srli	a1,a1,0x1f
    36a6:	00f65463          	bge	a2,a5,36ae <__fixunsdfsi+0x24>
    36aa:	c199                	beqz	a1,36b0 <__fixunsdfsi+0x26>
    36ac:	8082                	ret
    36ae:	8082                	ret
    36b0:	41e00613          	li	a2,1054
    36b4:	557d                	li	a0,-1
    36b6:	fef64be3          	blt	a2,a5,36ac <__fixunsdfsi+0x22>
    36ba:	43300513          	li	a0,1075
    36be:	8d1d                	sub	a0,a0,a5
    36c0:	467d                	li	a2,31
    36c2:	8f55                	or	a4,a4,a3
    36c4:	00a64a63          	blt	a2,a0,36d8 <__fixunsdfsi+0x4e>
    36c8:	bed78793          	addi	a5,a5,-1043 # ffbed <_data_lma+0xf9ca1>
    36cc:	00f71733          	sll	a4,a4,a5
    36d0:	00a85533          	srl	a0,a6,a0
    36d4:	8d59                	or	a0,a0,a4
    36d6:	8082                	ret
    36d8:	41300513          	li	a0,1043
    36dc:	40f507b3          	sub	a5,a0,a5
    36e0:	00f75533          	srl	a0,a4,a5
    36e4:	8082                	ret

000036e6 <__floatsidf>:
    36e6:	1141                	addi	sp,sp,-16
    36e8:	c606                	sw	ra,12(sp)
    36ea:	c422                	sw	s0,8(sp)
    36ec:	c226                	sw	s1,4(sp)
    36ee:	cd0d                	beqz	a0,3728 <__floatsidf+0x42>
    36f0:	41f55793          	srai	a5,a0,0x1f
    36f4:	00a7c4b3          	xor	s1,a5,a0
    36f8:	8c9d                	sub	s1,s1,a5
    36fa:	842a                	mv	s0,a0
    36fc:	8526                	mv	a0,s1
    36fe:	1a4010ef          	jal	ra,48a2 <__clzsi2>
    3702:	41e00693          	li	a3,1054
    3706:	8e89                	sub	a3,a3,a0
    3708:	47a9                	li	a5,10
    370a:	807d                	srli	s0,s0,0x1f
    370c:	7ff6f693          	andi	a3,a3,2047
    3710:	02a7cd63          	blt	a5,a0,374a <__floatsidf+0x64>
    3714:	472d                	li	a4,11
    3716:	8f09                	sub	a4,a4,a0
    3718:	00e4d7b3          	srl	a5,s1,a4
    371c:	0555                	addi	a0,a0,21
    371e:	07b2                	slli	a5,a5,0xc
    3720:	00a494b3          	sll	s1,s1,a0
    3724:	83b1                	srli	a5,a5,0xc
    3726:	a029                	j	3730 <__floatsidf+0x4a>
    3728:	4401                	li	s0,0
    372a:	4681                	li	a3,0
    372c:	4781                	li	a5,0
    372e:	4481                	li	s1,0
    3730:	07b2                	slli	a5,a5,0xc
    3732:	06d2                	slli	a3,a3,0x14
    3734:	83b1                	srli	a5,a5,0xc
    3736:	047e                	slli	s0,s0,0x1f
    3738:	8fd5                	or	a5,a5,a3
    373a:	8fc1                	or	a5,a5,s0
    373c:	40b2                	lw	ra,12(sp)
    373e:	4422                	lw	s0,8(sp)
    3740:	8526                	mv	a0,s1
    3742:	85be                	mv	a1,a5
    3744:	4492                	lw	s1,4(sp)
    3746:	0141                	addi	sp,sp,16
    3748:	8082                	ret
    374a:	1555                	addi	a0,a0,-11
    374c:	00a497b3          	sll	a5,s1,a0
    3750:	07b2                	slli	a5,a5,0xc
    3752:	83b1                	srli	a5,a5,0xc
    3754:	4481                	li	s1,0
    3756:	bfe9                	j	3730 <__floatsidf+0x4a>

00003758 <__addsf3>:
    3758:	1141                	addi	sp,sp,-16
    375a:	00800737          	lui	a4,0x800
    375e:	177d                	addi	a4,a4,-1
    3760:	0175d813          	srli	a6,a1,0x17
    3764:	c226                	sw	s1,4(sp)
    3766:	01755493          	srli	s1,a0,0x17
    376a:	00a77333          	and	t1,a4,a0
    376e:	0ff4f493          	andi	s1,s1,255
    3772:	00b776b3          	and	a3,a4,a1
    3776:	c04a                	sw	s2,0(sp)
    3778:	0ff87813          	andi	a6,a6,255
    377c:	01f55913          	srli	s2,a0,0x1f
    3780:	c606                	sw	ra,12(sp)
    3782:	c422                	sw	s0,8(sp)
    3784:	81fd                	srli	a1,a1,0x1f
    3786:	879a                	mv	a5,t1
    3788:	8526                	mv	a0,s1
    378a:	864a                	mv	a2,s2
    378c:	00331e13          	slli	t3,t1,0x3
    3790:	00369e93          	slli	t4,a3,0x3
    3794:	410488b3          	sub	a7,s1,a6
    3798:	0eb90a63          	beq	s2,a1,388c <__addsf3+0x134>
    379c:	0d105063          	blez	a7,385c <__addsf3+0x104>
    37a0:	14080463          	beqz	a6,38e8 <__addsf3+0x190>
    37a4:	0ff00793          	li	a5,255
    37a8:	14f48b63          	beq	s1,a5,38fe <__addsf3+0x1a6>
    37ac:	040007b7          	lui	a5,0x4000
    37b0:	00feeeb3          	or	t4,t4,a5
    37b4:	47ed                	li	a5,27
    37b6:	2917c163          	blt	a5,a7,3a38 <__addsf3+0x2e0>
    37ba:	02000793          	li	a5,32
    37be:	411787b3          	sub	a5,a5,a7
    37c2:	00fe97b3          	sll	a5,t4,a5
    37c6:	011ed8b3          	srl	a7,t4,a7
    37ca:	00f037b3          	snez	a5,a5
    37ce:	00f8e7b3          	or	a5,a7,a5
    37d2:	40fe07b3          	sub	a5,t3,a5
    37d6:	00579713          	slli	a4,a5,0x5
    37da:	18075e63          	bgez	a4,3976 <__addsf3+0x21e>
    37de:	04000437          	lui	s0,0x4000
    37e2:	147d                	addi	s0,s0,-1
    37e4:	8c7d                	and	s0,s0,a5
    37e6:	8522                	mv	a0,s0
    37e8:	0ba010ef          	jal	ra,48a2 <__clzsi2>
    37ec:	156d                	addi	a0,a0,-5
    37ee:	00a417b3          	sll	a5,s0,a0
    37f2:	1a954863          	blt	a0,s1,39a2 <__addsf3+0x24a>
    37f6:	8d05                	sub	a0,a0,s1
    37f8:	00150413          	addi	s0,a0,1 # 800001 <_data_lma+0x7fa0b5>
    37fc:	02000713          	li	a4,32
    3800:	8f01                	sub	a4,a4,s0
    3802:	00e79733          	sll	a4,a5,a4
    3806:	00e03733          	snez	a4,a4
    380a:	0087d7b3          	srl	a5,a5,s0
    380e:	8fd9                	or	a5,a5,a4
    3810:	4481                	li	s1,0
    3812:	0077f713          	andi	a4,a5,7
    3816:	c719                	beqz	a4,3824 <__addsf3+0xcc>
    3818:	00f7f713          	andi	a4,a5,15
    381c:	4691                	li	a3,4
    381e:	00d70363          	beq	a4,a3,3824 <__addsf3+0xcc>
    3822:	0791                	addi	a5,a5,4
    3824:	00579713          	slli	a4,a5,0x5
    3828:	14075b63          	bgez	a4,397e <__addsf3+0x226>
    382c:	0485                	addi	s1,s1,1
    382e:	0ff00713          	li	a4,255
    3832:	864a                	mv	a2,s2
    3834:	16e48363          	beq	s1,a4,399a <__addsf3+0x242>
    3838:	079a                	slli	a5,a5,0x6
    383a:	83a5                	srli	a5,a5,0x9
    383c:	0ff4f513          	andi	a0,s1,255
    3840:	40b2                	lw	ra,12(sp)
    3842:	4422                	lw	s0,8(sp)
    3844:	07a6                	slli	a5,a5,0x9
    3846:	01751493          	slli	s1,a0,0x17
    384a:	0097d513          	srli	a0,a5,0x9
    384e:	8d45                	or	a0,a0,s1
    3850:	067e                	slli	a2,a2,0x1f
    3852:	4492                	lw	s1,4(sp)
    3854:	4902                	lw	s2,0(sp)
    3856:	8d51                	or	a0,a0,a2
    3858:	0141                	addi	sp,sp,16
    385a:	8082                	ret
    385c:	0a089963          	bnez	a7,390e <__addsf3+0x1b6>
    3860:	00148713          	addi	a4,s1,1
    3864:	0fe77713          	andi	a4,a4,254
    3868:	14071763          	bnez	a4,39b6 <__addsf3+0x25e>
    386c:	22049063          	bnez	s1,3a8c <__addsf3+0x334>
    3870:	1e0e0d63          	beqz	t3,3a6a <__addsf3+0x312>
    3874:	fc0e86e3          	beqz	t4,3840 <__addsf3+0xe8>
    3878:	41de07b3          	sub	a5,t3,t4
    387c:	00579713          	slli	a4,a5,0x5
    3880:	22075063          	bgez	a4,3aa0 <__addsf3+0x348>
    3884:	41ce87b3          	sub	a5,t4,t3
    3888:	892e                	mv	s2,a1
    388a:	b761                	j	3812 <__addsf3+0xba>
    388c:	0b105c63          	blez	a7,3944 <__addsf3+0x1ec>
    3890:	08080e63          	beqz	a6,392c <__addsf3+0x1d4>
    3894:	0ff00793          	li	a5,255
    3898:	06f48363          	beq	s1,a5,38fe <__addsf3+0x1a6>
    389c:	040007b7          	lui	a5,0x4000
    38a0:	00feeeb3          	or	t4,t4,a5
    38a4:	47ed                	li	a5,27
    38a6:	1f17c963          	blt	a5,a7,3a98 <__addsf3+0x340>
    38aa:	02000793          	li	a5,32
    38ae:	411787b3          	sub	a5,a5,a7
    38b2:	00fe97b3          	sll	a5,t4,a5
    38b6:	011ed8b3          	srl	a7,t4,a7
    38ba:	00f037b3          	snez	a5,a5
    38be:	00f8e7b3          	or	a5,a7,a5
    38c2:	97f2                	add	a5,a5,t3
    38c4:	00579713          	slli	a4,a5,0x5
    38c8:	0a075763          	bgez	a4,3976 <__addsf3+0x21e>
    38cc:	0485                	addi	s1,s1,1
    38ce:	0ff00713          	li	a4,255
    38d2:	0ce48463          	beq	s1,a4,399a <__addsf3+0x242>
    38d6:	7e0006b7          	lui	a3,0x7e000
    38da:	0017d713          	srli	a4,a5,0x1
    38de:	16fd                	addi	a3,a3,-1
    38e0:	8b85                	andi	a5,a5,1
    38e2:	8f75                	and	a4,a4,a3
    38e4:	8fd9                	or	a5,a5,a4
    38e6:	b735                	j	3812 <__addsf3+0xba>
    38e8:	080e8d63          	beqz	t4,3982 <__addsf3+0x22a>
    38ec:	18fd                	addi	a7,a7,-1
    38ee:	41de07b3          	sub	a5,t3,t4
    38f2:	ee0882e3          	beqz	a7,37d6 <__addsf3+0x7e>
    38f6:	0ff00793          	li	a5,255
    38fa:	eaf49de3          	bne	s1,a5,37b4 <__addsf3+0x5c>
    38fe:	08030d63          	beqz	t1,3998 <__addsf3+0x240>
    3902:	4601                	li	a2,0
    3904:	0ff00513          	li	a0,255
    3908:	004007b7          	lui	a5,0x400
    390c:	bf15                	j	3840 <__addsf3+0xe8>
    390e:	40980733          	sub	a4,a6,s1
    3912:	e8ed                	bnez	s1,3a04 <__addsf3+0x2ac>
    3914:	140e0263          	beqz	t3,3a58 <__addsf3+0x300>
    3918:	177d                	addi	a4,a4,-1
    391a:	18070863          	beqz	a4,3aaa <__addsf3+0x352>
    391e:	0ff00793          	li	a5,255
    3922:	0ef81963          	bne	a6,a5,3a14 <__addsf3+0x2bc>
    3926:	892e                	mv	s2,a1
    3928:	8336                	mv	t1,a3
    392a:	bfd1                	j	38fe <__addsf3+0x1a6>
    392c:	040e8b63          	beqz	t4,3982 <__addsf3+0x22a>
    3930:	18fd                	addi	a7,a7,-1
    3932:	01de07b3          	add	a5,t3,t4
    3936:	f80887e3          	beqz	a7,38c4 <__addsf3+0x16c>
    393a:	0ff00793          	li	a5,255
    393e:	f6f493e3          	bne	s1,a5,38a4 <__addsf3+0x14c>
    3942:	bf75                	j	38fe <__addsf3+0x1a6>
    3944:	08089563          	bnez	a7,39ce <__addsf3+0x276>
    3948:	0485                	addi	s1,s1,1
    394a:	0fe4f713          	andi	a4,s1,254
    394e:	12071363          	bnez	a4,3a74 <__addsf3+0x31c>
    3952:	10051763          	bnez	a0,3a60 <__addsf3+0x308>
    3956:	140e0f63          	beqz	t3,3ab4 <__addsf3+0x35c>
    395a:	ee0e83e3          	beqz	t4,3840 <__addsf3+0xe8>
    395e:	01de07b3          	add	a5,t3,t4
    3962:	00579713          	slli	a4,a5,0x5
    3966:	4481                	li	s1,0
    3968:	00075763          	bgez	a4,3976 <__addsf3+0x21e>
    396c:	fc000737          	lui	a4,0xfc000
    3970:	177d                	addi	a4,a4,-1
    3972:	8ff9                	and	a5,a5,a4
    3974:	4485                	li	s1,1
    3976:	0077f713          	andi	a4,a5,7
    397a:	e8071fe3          	bnez	a4,3818 <__addsf3+0xc0>
    397e:	0037d313          	srli	t1,a5,0x3
    3982:	0ff00793          	li	a5,255
    3986:	f6f48ce3          	beq	s1,a5,38fe <__addsf3+0x1a6>
    398a:	00931793          	slli	a5,t1,0x9
    398e:	83a5                	srli	a5,a5,0x9
    3990:	0ff4f513          	andi	a0,s1,255
    3994:	864a                	mv	a2,s2
    3996:	b56d                	j	3840 <__addsf3+0xe8>
    3998:	864a                	mv	a2,s2
    399a:	0ff00513          	li	a0,255
    399e:	4781                	li	a5,0
    39a0:	b545                	j	3840 <__addsf3+0xe8>
    39a2:	fc000737          	lui	a4,0xfc000
    39a6:	177d                	addi	a4,a4,-1
    39a8:	8ff9                	and	a5,a5,a4
    39aa:	0077f713          	andi	a4,a5,7
    39ae:	8c89                	sub	s1,s1,a0
    39b0:	e60714e3          	bnez	a4,3818 <__addsf3+0xc0>
    39b4:	b7e9                	j	397e <__addsf3+0x226>
    39b6:	41de0433          	sub	s0,t3,t4
    39ba:	00541793          	slli	a5,s0,0x5
    39be:	0c07c363          	bltz	a5,3a84 <__addsf3+0x32c>
    39c2:	e20412e3          	bnez	s0,37e6 <__addsf3+0x8e>
    39c6:	4601                	li	a2,0
    39c8:	4501                	li	a0,0
    39ca:	4781                	li	a5,0
    39cc:	bd95                	j	3840 <__addsf3+0xe8>
    39ce:	40980733          	sub	a4,a6,s1
    39d2:	c4ad                	beqz	s1,3a3c <__addsf3+0x2e4>
    39d4:	0ff00793          	li	a5,255
    39d8:	f4f808e3          	beq	a6,a5,3928 <__addsf3+0x1d0>
    39dc:	040007b7          	lui	a5,0x4000
    39e0:	00fe6e33          	or	t3,t3,a5
    39e4:	47ed                	li	a5,27
    39e6:	0ce7cc63          	blt	a5,a4,3abe <__addsf3+0x366>
    39ea:	02000793          	li	a5,32
    39ee:	8f99                	sub	a5,a5,a4
    39f0:	00fe17b3          	sll	a5,t3,a5
    39f4:	00ee5733          	srl	a4,t3,a4
    39f8:	00f037b3          	snez	a5,a5
    39fc:	8fd9                	or	a5,a5,a4
    39fe:	97f6                	add	a5,a5,t4
    3a00:	84c2                	mv	s1,a6
    3a02:	b5c9                	j	38c4 <__addsf3+0x16c>
    3a04:	0ff00793          	li	a5,255
    3a08:	f0f80fe3          	beq	a6,a5,3926 <__addsf3+0x1ce>
    3a0c:	040007b7          	lui	a5,0x4000
    3a10:	00fe6e33          	or	t3,t3,a5
    3a14:	47ed                	li	a5,27
    3a16:	08e7c363          	blt	a5,a4,3a9c <__addsf3+0x344>
    3a1a:	02000693          	li	a3,32
    3a1e:	8e99                	sub	a3,a3,a4
    3a20:	00de16b3          	sll	a3,t3,a3
    3a24:	00ee57b3          	srl	a5,t3,a4
    3a28:	00d03733          	snez	a4,a3
    3a2c:	8fd9                	or	a5,a5,a4
    3a2e:	40fe87b3          	sub	a5,t4,a5
    3a32:	84c2                	mv	s1,a6
    3a34:	892e                	mv	s2,a1
    3a36:	b345                	j	37d6 <__addsf3+0x7e>
    3a38:	4785                	li	a5,1
    3a3a:	bb61                	j	37d2 <__addsf3+0x7a>
    3a3c:	060e0e63          	beqz	t3,3ab8 <__addsf3+0x360>
    3a40:	177d                	addi	a4,a4,-1
    3a42:	01de07b3          	add	a5,t3,t4
    3a46:	84c2                	mv	s1,a6
    3a48:	e6070ee3          	beqz	a4,38c4 <__addsf3+0x16c>
    3a4c:	0ff00793          	li	a5,255
    3a50:	f8f81ae3          	bne	a6,a5,39e4 <__addsf3+0x28c>
    3a54:	8336                	mv	t1,a3
    3a56:	b565                	j	38fe <__addsf3+0x1a6>
    3a58:	8336                	mv	t1,a3
    3a5a:	84c2                	mv	s1,a6
    3a5c:	892e                	mv	s2,a1
    3a5e:	b715                	j	3982 <__addsf3+0x22a>
    3a60:	ec0e04e3          	beqz	t3,3928 <__addsf3+0x1d0>
    3a64:	e80e8de3          	beqz	t4,38fe <__addsf3+0x1a6>
    3a68:	bd69                	j	3902 <__addsf3+0x1aa>
    3a6a:	020e8d63          	beqz	t4,3aa4 <__addsf3+0x34c>
    3a6e:	862e                	mv	a2,a1
    3a70:	87b6                	mv	a5,a3
    3a72:	b3f9                	j	3840 <__addsf3+0xe8>
    3a74:	0ff00793          	li	a5,255
    3a78:	f2f481e3          	beq	s1,a5,399a <__addsf3+0x242>
    3a7c:	01de07b3          	add	a5,t3,t4
    3a80:	8385                	srli	a5,a5,0x1
    3a82:	bdd5                	j	3976 <__addsf3+0x21e>
    3a84:	41ce8433          	sub	s0,t4,t3
    3a88:	892e                	mv	s2,a1
    3a8a:	bbb1                	j	37e6 <__addsf3+0x8e>
    3a8c:	fc0e1ce3          	bnez	t3,3a64 <__addsf3+0x30c>
    3a90:	e60e89e3          	beqz	t4,3902 <__addsf3+0x1aa>
    3a94:	892e                	mv	s2,a1
    3a96:	bd49                	j	3928 <__addsf3+0x1d0>
    3a98:	4785                	li	a5,1
    3a9a:	b525                	j	38c2 <__addsf3+0x16a>
    3a9c:	4785                	li	a5,1
    3a9e:	bf41                	j	3a2e <__addsf3+0x2d6>
    3aa0:	ec079be3          	bnez	a5,3976 <__addsf3+0x21e>
    3aa4:	4601                	li	a2,0
    3aa6:	4781                	li	a5,0
    3aa8:	bb61                	j	3840 <__addsf3+0xe8>
    3aaa:	41ce87b3          	sub	a5,t4,t3
    3aae:	84c2                	mv	s1,a6
    3ab0:	892e                	mv	s2,a1
    3ab2:	b315                	j	37d6 <__addsf3+0x7e>
    3ab4:	87b6                	mv	a5,a3
    3ab6:	b369                	j	3840 <__addsf3+0xe8>
    3ab8:	8336                	mv	t1,a3
    3aba:	84c2                	mv	s1,a6
    3abc:	b5d9                	j	3982 <__addsf3+0x22a>
    3abe:	4785                	li	a5,1
    3ac0:	bf3d                	j	39fe <__addsf3+0x2a6>

00003ac2 <__divsf3>:
    3ac2:	7139                	addi	sp,sp,-64
    3ac4:	01755793          	srli	a5,a0,0x17
    3ac8:	d84a                	sw	s2,48(sp)
    3aca:	d256                	sw	s5,36(sp)
    3acc:	ce5e                	sw	s7,28(sp)
    3ace:	00951a93          	slli	s5,a0,0x9
    3ad2:	01f55913          	srli	s2,a0,0x1f
    3ad6:	de06                	sw	ra,60(sp)
    3ad8:	dc22                	sw	s0,56(sp)
    3ada:	da26                	sw	s1,52(sp)
    3adc:	d64e                	sw	s3,44(sp)
    3ade:	d452                	sw	s4,40(sp)
    3ae0:	d05a                	sw	s6,32(sp)
    3ae2:	0ff7f793          	andi	a5,a5,255
    3ae6:	009ada93          	srli	s5,s5,0x9
    3aea:	8bca                	mv	s7,s2
    3aec:	12078263          	beqz	a5,3c10 <__divsf3+0x14e>
    3af0:	0ff00713          	li	a4,255
    3af4:	12e78463          	beq	a5,a4,3c1c <__divsf3+0x15a>
    3af8:	0a8e                	slli	s5,s5,0x3
    3afa:	04000737          	lui	a4,0x4000
    3afe:	00eaeab3          	or	s5,s5,a4
    3b02:	f8178a13          	addi	s4,a5,-127 # 3ffff81 <_data_lma+0x3ffa035>
    3b06:	4401                	li	s0,0
    3b08:	4b01                	li	s6,0
    3b0a:	0175d793          	srli	a5,a1,0x17
    3b0e:	00959493          	slli	s1,a1,0x9
    3b12:	0ff7f793          	andi	a5,a5,255
    3b16:	80a5                	srli	s1,s1,0x9
    3b18:	01f5d993          	srli	s3,a1,0x1f
    3b1c:	c7fd                	beqz	a5,3c0a <__divsf3+0x148>
    3b1e:	0ff00713          	li	a4,255
    3b22:	02e78763          	beq	a5,a4,3b50 <__divsf3+0x8e>
    3b26:	048e                	slli	s1,s1,0x3
    3b28:	f8178793          	addi	a5,a5,-127
    3b2c:	04000737          	lui	a4,0x4000
    3b30:	8cd9                	or	s1,s1,a4
    3b32:	40fa0a33          	sub	s4,s4,a5
    3b36:	4681                	li	a3,0
    3b38:	8c55                	or	s0,s0,a3
    3b3a:	00002717          	auipc	a4,0x2
    3b3e:	1b670713          	addi	a4,a4,438 # 5cf0 <_read+0x228>
    3b42:	040a                	slli	s0,s0,0x2
    3b44:	943a                	add	s0,s0,a4
    3b46:	401c                	lw	a5,0(s0)
    3b48:	01394933          	xor	s2,s2,s3
    3b4c:	97ba                	add	a5,a5,a4
    3b4e:	8782                	jr	a5
    3b50:	f01a0a13          	addi	s4,s4,-255
    3b54:	e8f9                	bnez	s1,3c2a <__divsf3+0x168>
    3b56:	4689                	li	a3,2
    3b58:	8c55                	or	s0,s0,a3
    3b5a:	00002717          	auipc	a4,0x2
    3b5e:	1d670713          	addi	a4,a4,470 # 5d30 <_read+0x268>
    3b62:	040a                	slli	s0,s0,0x2
    3b64:	943a                	add	s0,s0,a4
    3b66:	401c                	lw	a5,0(s0)
    3b68:	01394933          	xor	s2,s2,s3
    3b6c:	97ba                	add	a5,a5,a4
    3b6e:	8782                	jr	a5
    3b70:	4901                	li	s2,0
    3b72:	0ff00713          	li	a4,255
    3b76:	004007b7          	lui	a5,0x400
    3b7a:	00979513          	slli	a0,a5,0x9
    3b7e:	50f2                	lw	ra,60(sp)
    3b80:	5462                	lw	s0,56(sp)
    3b82:	01771793          	slli	a5,a4,0x17
    3b86:	8125                	srli	a0,a0,0x9
    3b88:	097e                	slli	s2,s2,0x1f
    3b8a:	8d5d                	or	a0,a0,a5
    3b8c:	01256533          	or	a0,a0,s2
    3b90:	54d2                	lw	s1,52(sp)
    3b92:	5942                	lw	s2,48(sp)
    3b94:	59b2                	lw	s3,44(sp)
    3b96:	5a22                	lw	s4,40(sp)
    3b98:	5a92                	lw	s5,36(sp)
    3b9a:	5b02                	lw	s6,32(sp)
    3b9c:	4bf2                	lw	s7,28(sp)
    3b9e:	6121                	addi	sp,sp,64
    3ba0:	8082                	ret
    3ba2:	0ff00713          	li	a4,255
    3ba6:	4781                	li	a5,0
    3ba8:	bfc9                	j	3b7a <__divsf3+0xb8>
    3baa:	8aa6                	mv	s5,s1
    3bac:	8bce                	mv	s7,s3
    3bae:	8b36                	mv	s6,a3
    3bb0:	4789                	li	a5,2
    3bb2:	1afb0b63          	beq	s6,a5,3d68 <__divsf3+0x2a6>
    3bb6:	478d                	li	a5,3
    3bb8:	fafb0ce3          	beq	s6,a5,3b70 <__divsf3+0xae>
    3bbc:	4785                	li	a5,1
    3bbe:	0afb0a63          	beq	s6,a5,3c72 <__divsf3+0x1b0>
    3bc2:	07fa0713          	addi	a4,s4,127
    3bc6:	001bf913          	andi	s2,s7,1
    3bca:	12e05763          	blez	a4,3cf8 <__divsf3+0x236>
    3bce:	007af793          	andi	a5,s5,7
    3bd2:	c799                	beqz	a5,3be0 <__divsf3+0x11e>
    3bd4:	00faf793          	andi	a5,s5,15
    3bd8:	4691                	li	a3,4
    3bda:	00d78363          	beq	a5,a3,3be0 <__divsf3+0x11e>
    3bde:	0a91                	addi	s5,s5,4
    3be0:	004a9793          	slli	a5,s5,0x4
    3be4:	0007d963          	bgez	a5,3bf6 <__divsf3+0x134>
    3be8:	f80007b7          	lui	a5,0xf8000
    3bec:	17fd                	addi	a5,a5,-1
    3bee:	00fafab3          	and	s5,s5,a5
    3bf2:	080a0713          	addi	a4,s4,128
    3bf6:	0fe00793          	li	a5,254
    3bfa:	fae7c4e3          	blt	a5,a4,3ba2 <__divsf3+0xe0>
    3bfe:	006a9793          	slli	a5,s5,0x6
    3c02:	83a5                	srli	a5,a5,0x9
    3c04:	0ff77713          	andi	a4,a4,255
    3c08:	bf8d                	j	3b7a <__divsf3+0xb8>
    3c0a:	e4b9                	bnez	s1,3c58 <__divsf3+0x196>
    3c0c:	4685                	li	a3,1
    3c0e:	b7a9                	j	3b58 <__divsf3+0x96>
    3c10:	020a9463          	bnez	s5,3c38 <__divsf3+0x176>
    3c14:	4411                	li	s0,4
    3c16:	4a01                	li	s4,0
    3c18:	4b05                	li	s6,1
    3c1a:	bdc5                	j	3b0a <__divsf3+0x48>
    3c1c:	000a9963          	bnez	s5,3c2e <__divsf3+0x16c>
    3c20:	4421                	li	s0,8
    3c22:	0ff00a13          	li	s4,255
    3c26:	4b09                	li	s6,2
    3c28:	b5cd                	j	3b0a <__divsf3+0x48>
    3c2a:	468d                	li	a3,3
    3c2c:	b731                	j	3b38 <__divsf3+0x76>
    3c2e:	4431                	li	s0,12
    3c30:	0ff00a13          	li	s4,255
    3c34:	4b0d                	li	s6,3
    3c36:	bdd1                	j	3b0a <__divsf3+0x48>
    3c38:	8556                	mv	a0,s5
    3c3a:	c62e                	sw	a1,12(sp)
    3c3c:	467000ef          	jal	ra,48a2 <__clzsi2>
    3c40:	ffb50793          	addi	a5,a0,-5
    3c44:	00fa9ab3          	sll	s5,s5,a5
    3c48:	f8a00793          	li	a5,-118
    3c4c:	40a78a33          	sub	s4,a5,a0
    3c50:	4401                	li	s0,0
    3c52:	4b01                	li	s6,0
    3c54:	45b2                	lw	a1,12(sp)
    3c56:	bd55                	j	3b0a <__divsf3+0x48>
    3c58:	8526                	mv	a0,s1
    3c5a:	449000ef          	jal	ra,48a2 <__clzsi2>
    3c5e:	ffb50713          	addi	a4,a0,-5
    3c62:	00aa07b3          	add	a5,s4,a0
    3c66:	00e494b3          	sll	s1,s1,a4
    3c6a:	07678a13          	addi	s4,a5,118 # f8000076 <_eusrstack+0xd7ffb076>
    3c6e:	4681                	li	a3,0
    3c70:	b5e1                	j	3b38 <__divsf3+0x76>
    3c72:	001bf913          	andi	s2,s7,1
    3c76:	4701                	li	a4,0
    3c78:	4781                	li	a5,0
    3c7a:	b701                	j	3b7a <__divsf3+0xb8>
    3c7c:	6641                	lui	a2,0x10
    3c7e:	00549513          	slli	a0,s1,0x5
    3c82:	167d                	addi	a2,a2,-1
    3c84:	01055793          	srli	a5,a0,0x10
    3c88:	8e69                	and	a2,a2,a0
    3c8a:	0a9afa63          	bgeu	s5,s1,3d3e <__divsf3+0x27c>
    3c8e:	02fad5b3          	divu	a1,s5,a5
    3c92:	1a7d                	addi	s4,s4,-1
    3c94:	86d6                	mv	a3,s5
    3c96:	4701                	li	a4,0
    3c98:	02c58833          	mul	a6,a1,a2
    3c9c:	02f6f6b3          	remu	a3,a3,a5
    3ca0:	06c2                	slli	a3,a3,0x10
    3ca2:	8f55                	or	a4,a4,a3
    3ca4:	01077b63          	bgeu	a4,a6,3cba <__divsf3+0x1f8>
    3ca8:	972a                	add	a4,a4,a0
    3caa:	fff58693          	addi	a3,a1,-1
    3cae:	0aa76863          	bltu	a4,a0,3d5e <__divsf3+0x29c>
    3cb2:	0b077663          	bgeu	a4,a6,3d5e <__divsf3+0x29c>
    3cb6:	15f9                	addi	a1,a1,-2
    3cb8:	972a                	add	a4,a4,a0
    3cba:	41070733          	sub	a4,a4,a6
    3cbe:	02f756b3          	divu	a3,a4,a5
    3cc2:	02f77733          	remu	a4,a4,a5
    3cc6:	02c68ab3          	mul	s5,a3,a2
    3cca:	01071793          	slli	a5,a4,0x10
    3cce:	0157fb63          	bgeu	a5,s5,3ce4 <__divsf3+0x222>
    3cd2:	97aa                	add	a5,a5,a0
    3cd4:	fff68713          	addi	a4,a3,-1 # 7dffffff <_eusrstack+0x5dffafff>
    3cd8:	08a7e163          	bltu	a5,a0,3d5a <__divsf3+0x298>
    3cdc:	0757ff63          	bgeu	a5,s5,3d5a <__divsf3+0x298>
    3ce0:	16f9                	addi	a3,a3,-2
    3ce2:	97aa                	add	a5,a5,a0
    3ce4:	05c2                	slli	a1,a1,0x10
    3ce6:	41578ab3          	sub	s5,a5,s5
    3cea:	8dd5                	or	a1,a1,a3
    3cec:	01503ab3          	snez	s5,s5
    3cf0:	0155eab3          	or	s5,a1,s5
    3cf4:	8bca                	mv	s7,s2
    3cf6:	b5f1                	j	3bc2 <__divsf3+0x100>
    3cf8:	4685                	li	a3,1
    3cfa:	8e99                	sub	a3,a3,a4
    3cfc:	c711                	beqz	a4,3d08 <__divsf3+0x246>
    3cfe:	466d                	li	a2,27
    3d00:	4701                	li	a4,0
    3d02:	4781                	li	a5,0
    3d04:	e6d64be3          	blt	a2,a3,3b7a <__divsf3+0xb8>
    3d08:	09ea0a13          	addi	s4,s4,158
    3d0c:	014a9a33          	sll	s4,s5,s4
    3d10:	00dad7b3          	srl	a5,s5,a3
    3d14:	01403ab3          	snez	s5,s4
    3d18:	0157e7b3          	or	a5,a5,s5
    3d1c:	0077f713          	andi	a4,a5,7
    3d20:	c719                	beqz	a4,3d2e <__divsf3+0x26c>
    3d22:	00f7f713          	andi	a4,a5,15
    3d26:	4691                	li	a3,4
    3d28:	00d70363          	beq	a4,a3,3d2e <__divsf3+0x26c>
    3d2c:	0791                	addi	a5,a5,4
    3d2e:	00579713          	slli	a4,a5,0x5
    3d32:	02074863          	bltz	a4,3d62 <__divsf3+0x2a0>
    3d36:	079a                	slli	a5,a5,0x6
    3d38:	83a5                	srli	a5,a5,0x9
    3d3a:	4701                	li	a4,0
    3d3c:	bd3d                	j	3b7a <__divsf3+0xb8>
    3d3e:	001ad693          	srli	a3,s5,0x1
    3d42:	02f6d5b3          	divu	a1,a3,a5
    3d46:	01fa9713          	slli	a4,s5,0x1f
    3d4a:	8341                	srli	a4,a4,0x10
    3d4c:	02c58833          	mul	a6,a1,a2
    3d50:	b7b1                	j	3c9c <__divsf3+0x1da>
    3d52:	8bce                	mv	s7,s3
    3d54:	8b36                	mv	s6,a3
    3d56:	4a81                	li	s5,0
    3d58:	bda1                	j	3bb0 <__divsf3+0xee>
    3d5a:	86ba                	mv	a3,a4
    3d5c:	b761                	j	3ce4 <__divsf3+0x222>
    3d5e:	85b6                	mv	a1,a3
    3d60:	bfa9                	j	3cba <__divsf3+0x1f8>
    3d62:	4705                	li	a4,1
    3d64:	4781                	li	a5,0
    3d66:	bd11                	j	3b7a <__divsf3+0xb8>
    3d68:	001bf913          	andi	s2,s7,1
    3d6c:	0ff00713          	li	a4,255
    3d70:	4781                	li	a5,0
    3d72:	b521                	j	3b7a <__divsf3+0xb8>

00003d74 <__gesf2>:
    3d74:	01755693          	srli	a3,a0,0x17
    3d78:	008007b7          	lui	a5,0x800
    3d7c:	17fd                	addi	a5,a5,-1
    3d7e:	0175d613          	srli	a2,a1,0x17
    3d82:	0ff6f693          	andi	a3,a3,255
    3d86:	0ff00813          	li	a6,255
    3d8a:	00a7f8b3          	and	a7,a5,a0
    3d8e:	01f55713          	srli	a4,a0,0x1f
    3d92:	8fed                	and	a5,a5,a1
    3d94:	0ff67613          	andi	a2,a2,255
    3d98:	81fd                	srli	a1,a1,0x1f
    3d9a:	03068163          	beq	a3,a6,3dbc <__gesf2+0x48>
    3d9e:	01060c63          	beq	a2,a6,3db6 <__gesf2+0x42>
    3da2:	e28d                	bnez	a3,3dc4 <__gesf2+0x50>
    3da4:	e211                	bnez	a2,3da8 <__gesf2+0x34>
    3da6:	c3b1                	beqz	a5,3dea <__gesf2+0x76>
    3da8:	02088e63          	beqz	a7,3de4 <__gesf2+0x70>
    3dac:	04b70563          	beq	a4,a1,3df6 <__gesf2+0x82>
    3db0:	4505                	li	a0,1
    3db2:	e71d                	bnez	a4,3de0 <__gesf2+0x6c>
    3db4:	8082                	ret
    3db6:	d7f5                	beqz	a5,3da2 <__gesf2+0x2e>
    3db8:	5579                	li	a0,-2
    3dba:	8082                	ret
    3dbc:	fe089ee3          	bnez	a7,3db8 <__gesf2+0x44>
    3dc0:	02d60963          	beq	a2,a3,3df2 <__gesf2+0x7e>
    3dc4:	e211                	bnez	a2,3dc8 <__gesf2+0x54>
    3dc6:	d7ed                	beqz	a5,3db0 <__gesf2+0x3c>
    3dc8:	feb714e3          	bne	a4,a1,3db0 <__gesf2+0x3c>
    3dcc:	fed642e3          	blt	a2,a3,3db0 <__gesf2+0x3c>
    3dd0:	00c6c763          	blt	a3,a2,3dde <__gesf2+0x6a>
    3dd4:	fd17eee3          	bltu	a5,a7,3db0 <__gesf2+0x3c>
    3dd8:	4501                	li	a0,0
    3dda:	fcf8fde3          	bgeu	a7,a5,3db4 <__gesf2+0x40>
    3dde:	e701                	bnez	a4,3de6 <__gesf2+0x72>
    3de0:	557d                	li	a0,-1
    3de2:	8082                	ret
    3de4:	ddf5                	beqz	a1,3de0 <__gesf2+0x6c>
    3de6:	4505                	li	a0,1
    3de8:	8082                	ret
    3dea:	4501                	li	a0,0
    3dec:	fc0892e3          	bnez	a7,3db0 <__gesf2+0x3c>
    3df0:	8082                	ret
    3df2:	dbf9                	beqz	a5,3dc8 <__gesf2+0x54>
    3df4:	b7d1                	j	3db8 <__gesf2+0x44>
    3df6:	4681                	li	a3,0
    3df8:	bfe1                	j	3dd0 <__gesf2+0x5c>

00003dfa <__lesf2>:
    3dfa:	01755693          	srli	a3,a0,0x17
    3dfe:	008007b7          	lui	a5,0x800
    3e02:	17fd                	addi	a5,a5,-1
    3e04:	0175d613          	srli	a2,a1,0x17
    3e08:	0ff6f693          	andi	a3,a3,255
    3e0c:	0ff00813          	li	a6,255
    3e10:	00a7f8b3          	and	a7,a5,a0
    3e14:	01f55713          	srli	a4,a0,0x1f
    3e18:	8fed                	and	a5,a5,a1
    3e1a:	0ff67613          	andi	a2,a2,255
    3e1e:	81fd                	srli	a1,a1,0x1f
    3e20:	03068763          	beq	a3,a6,3e4e <__lesf2+0x54>
    3e24:	01060963          	beq	a2,a6,3e36 <__lesf2+0x3c>
    3e28:	ea85                	bnez	a3,3e58 <__lesf2+0x5e>
    3e2a:	ea11                	bnez	a2,3e3e <__lesf2+0x44>
    3e2c:	eb89                	bnez	a5,3e3e <__lesf2+0x44>
    3e2e:	4501                	li	a0,0
    3e30:	00089b63          	bnez	a7,3e46 <__lesf2+0x4c>
    3e34:	8082                	ret
    3e36:	4509                	li	a0,2
    3e38:	fff5                	bnez	a5,3e34 <__lesf2+0x3a>
    3e3a:	dae5                	beqz	a3,3e2a <__lesf2+0x30>
    3e3c:	a831                	j	3e58 <__lesf2+0x5e>
    3e3e:	02088c63          	beqz	a7,3e76 <__lesf2+0x7c>
    3e42:	04b70063          	beq	a4,a1,3e82 <__lesf2+0x88>
    3e46:	4505                	li	a0,1
    3e48:	d775                	beqz	a4,3e34 <__lesf2+0x3a>
    3e4a:	557d                	li	a0,-1
    3e4c:	8082                	ret
    3e4e:	4509                	li	a0,2
    3e50:	02089863          	bnez	a7,3e80 <__lesf2+0x86>
    3e54:	02d60463          	beq	a2,a3,3e7c <__lesf2+0x82>
    3e58:	e211                	bnez	a2,3e5c <__lesf2+0x62>
    3e5a:	d7f5                	beqz	a5,3e46 <__lesf2+0x4c>
    3e5c:	feb715e3          	bne	a4,a1,3e46 <__lesf2+0x4c>
    3e60:	fed643e3          	blt	a2,a3,3e46 <__lesf2+0x4c>
    3e64:	00c6c763          	blt	a3,a2,3e72 <__lesf2+0x78>
    3e68:	fd17efe3          	bltu	a5,a7,3e46 <__lesf2+0x4c>
    3e6c:	4501                	li	a0,0
    3e6e:	fcf8f3e3          	bgeu	a7,a5,3e34 <__lesf2+0x3a>
    3e72:	e319                	bnez	a4,3e78 <__lesf2+0x7e>
    3e74:	bfd9                	j	3e4a <__lesf2+0x50>
    3e76:	d9f1                	beqz	a1,3e4a <__lesf2+0x50>
    3e78:	4505                	li	a0,1
    3e7a:	8082                	ret
    3e7c:	d3e5                	beqz	a5,3e5c <__lesf2+0x62>
    3e7e:	8082                	ret
    3e80:	8082                	ret
    3e82:	4681                	li	a3,0
    3e84:	b7c5                	j	3e64 <__lesf2+0x6a>

00003e86 <__mulsf3>:
    3e86:	7179                	addi	sp,sp,-48
    3e88:	d422                	sw	s0,40(sp)
    3e8a:	01755413          	srli	s0,a0,0x17
    3e8e:	ce4e                	sw	s3,28(sp)
    3e90:	cc52                	sw	s4,24(sp)
    3e92:	00951993          	slli	s3,a0,0x9
    3e96:	d606                	sw	ra,44(sp)
    3e98:	d226                	sw	s1,36(sp)
    3e9a:	d04a                	sw	s2,32(sp)
    3e9c:	ca56                	sw	s5,20(sp)
    3e9e:	c85a                	sw	s6,16(sp)
    3ea0:	0ff47413          	andi	s0,s0,255
    3ea4:	0099d993          	srli	s3,s3,0x9
    3ea8:	01f55a13          	srli	s4,a0,0x1f
    3eac:	c469                	beqz	s0,3f76 <__mulsf3+0xf0>
    3eae:	0ff00793          	li	a5,255
    3eb2:	0ef40863          	beq	s0,a5,3fa2 <__mulsf3+0x11c>
    3eb6:	00399793          	slli	a5,s3,0x3
    3eba:	04000737          	lui	a4,0x4000
    3ebe:	00e7e9b3          	or	s3,a5,a4
    3ec2:	f8140413          	addi	s0,s0,-127 # 3ffff81 <_data_lma+0x3ffa035>
    3ec6:	4481                	li	s1,0
    3ec8:	4b01                	li	s6,0
    3eca:	0175d713          	srli	a4,a1,0x17
    3ece:	00959a93          	slli	s5,a1,0x9
    3ed2:	0ff77713          	andi	a4,a4,255
    3ed6:	009ada93          	srli	s5,s5,0x9
    3eda:	01f5d913          	srli	s2,a1,0x1f
    3ede:	cf45                	beqz	a4,3f96 <__mulsf3+0x110>
    3ee0:	0ff00793          	li	a5,255
    3ee4:	02f70c63          	beq	a4,a5,3f1c <__mulsf3+0x96>
    3ee8:	0a8e                	slli	s5,s5,0x3
    3eea:	f8170713          	addi	a4,a4,-127 # 3ffff81 <_data_lma+0x3ffa035>
    3eee:	040007b7          	lui	a5,0x4000
    3ef2:	00faeab3          	or	s5,s5,a5
    3ef6:	943a                	add	s0,s0,a4
    3ef8:	4601                	li	a2,0
    3efa:	012a4533          	xor	a0,s4,s2
    3efe:	47bd                	li	a5,15
    3f00:	86aa                	mv	a3,a0
    3f02:	00140593          	addi	a1,s0,1
    3f06:	1097e263          	bltu	a5,s1,400a <__mulsf3+0x184>
    3f0a:	00002717          	auipc	a4,0x2
    3f0e:	e6670713          	addi	a4,a4,-410 # 5d70 <_read+0x2a8>
    3f12:	048a                	slli	s1,s1,0x2
    3f14:	94ba                	add	s1,s1,a4
    3f16:	409c                	lw	a5,0(s1)
    3f18:	97ba                	add	a5,a5,a4
    3f1a:	8782                	jr	a5
    3f1c:	0ff40413          	addi	s0,s0,255
    3f20:	0c0a9863          	bnez	s5,3ff0 <__mulsf3+0x16a>
    3f24:	0024e493          	ori	s1,s1,2
    3f28:	4609                	li	a2,2
    3f2a:	bfc1                	j	3efa <__mulsf3+0x74>
    3f2c:	4501                	li	a0,0
    3f2e:	0ff00713          	li	a4,255
    3f32:	004007b7          	lui	a5,0x400
    3f36:	50b2                	lw	ra,44(sp)
    3f38:	5422                	lw	s0,40(sp)
    3f3a:	07a6                	slli	a5,a5,0x9
    3f3c:	075e                	slli	a4,a4,0x17
    3f3e:	83a5                	srli	a5,a5,0x9
    3f40:	057e                	slli	a0,a0,0x1f
    3f42:	8fd9                	or	a5,a5,a4
    3f44:	5492                	lw	s1,36(sp)
    3f46:	5902                	lw	s2,32(sp)
    3f48:	49f2                	lw	s3,28(sp)
    3f4a:	4a62                	lw	s4,24(sp)
    3f4c:	4ad2                	lw	s5,20(sp)
    3f4e:	4b42                	lw	s6,16(sp)
    3f50:	8d5d                	or	a0,a0,a5
    3f52:	6145                	addi	sp,sp,48
    3f54:	8082                	ret
    3f56:	86ca                	mv	a3,s2
    3f58:	89d6                	mv	s3,s5
    3f5a:	8b32                	mv	s6,a2
    3f5c:	4789                	li	a5,2
    3f5e:	0afb0163          	beq	s6,a5,4000 <__mulsf3+0x17a>
    3f62:	478d                	li	a5,3
    3f64:	fcfb04e3          	beq	s6,a5,3f2c <__mulsf3+0xa6>
    3f68:	4785                	li	a5,1
    3f6a:	8536                	mv	a0,a3
    3f6c:	1afb1263          	bne	s6,a5,4110 <__mulsf3+0x28a>
    3f70:	4701                	li	a4,0
    3f72:	4781                	li	a5,0
    3f74:	b7c9                	j	3f36 <__mulsf3+0xb0>
    3f76:	04099e63          	bnez	s3,3fd2 <__mulsf3+0x14c>
    3f7a:	0175d713          	srli	a4,a1,0x17
    3f7e:	00959a93          	slli	s5,a1,0x9
    3f82:	0ff77713          	andi	a4,a4,255
    3f86:	4491                	li	s1,4
    3f88:	4401                	li	s0,0
    3f8a:	4b05                	li	s6,1
    3f8c:	009ada93          	srli	s5,s5,0x9
    3f90:	01f5d913          	srli	s2,a1,0x1f
    3f94:	f731                	bnez	a4,3ee0 <__mulsf3+0x5a>
    3f96:	000a9d63          	bnez	s5,3fb0 <__mulsf3+0x12a>
    3f9a:	0014e493          	ori	s1,s1,1
    3f9e:	4605                	li	a2,1
    3fa0:	bfa9                	j	3efa <__mulsf3+0x74>
    3fa2:	02099363          	bnez	s3,3fc8 <__mulsf3+0x142>
    3fa6:	44a1                	li	s1,8
    3fa8:	0ff00413          	li	s0,255
    3fac:	4b09                	li	s6,2
    3fae:	bf31                	j	3eca <__mulsf3+0x44>
    3fb0:	8556                	mv	a0,s5
    3fb2:	0f1000ef          	jal	ra,48a2 <__clzsi2>
    3fb6:	ffb50793          	addi	a5,a0,-5
    3fba:	8c09                	sub	s0,s0,a0
    3fbc:	00fa9ab3          	sll	s5,s5,a5
    3fc0:	f8a40413          	addi	s0,s0,-118
    3fc4:	4601                	li	a2,0
    3fc6:	bf15                	j	3efa <__mulsf3+0x74>
    3fc8:	44b1                	li	s1,12
    3fca:	0ff00413          	li	s0,255
    3fce:	4b0d                	li	s6,3
    3fd0:	bded                	j	3eca <__mulsf3+0x44>
    3fd2:	854e                	mv	a0,s3
    3fd4:	c62e                	sw	a1,12(sp)
    3fd6:	0cd000ef          	jal	ra,48a2 <__clzsi2>
    3fda:	ffb50793          	addi	a5,a0,-5
    3fde:	f8a00413          	li	s0,-118
    3fe2:	00f999b3          	sll	s3,s3,a5
    3fe6:	8c09                	sub	s0,s0,a0
    3fe8:	4481                	li	s1,0
    3fea:	4b01                	li	s6,0
    3fec:	45b2                	lw	a1,12(sp)
    3fee:	bdf1                	j	3eca <__mulsf3+0x44>
    3ff0:	0034e493          	ori	s1,s1,3
    3ff4:	460d                	li	a2,3
    3ff6:	b711                	j	3efa <__mulsf3+0x74>
    3ff8:	4789                	li	a5,2
    3ffa:	86d2                	mv	a3,s4
    3ffc:	f6fb13e3          	bne	s6,a5,3f62 <__mulsf3+0xdc>
    4000:	8536                	mv	a0,a3
    4002:	0ff00713          	li	a4,255
    4006:	4781                	li	a5,0
    4008:	b73d                	j	3f36 <__mulsf3+0xb0>
    400a:	6341                	lui	t1,0x10
    400c:	fff30693          	addi	a3,t1,-1 # ffff <_data_lma+0xa0b3>
    4010:	0109d613          	srli	a2,s3,0x10
    4014:	010ad893          	srli	a7,s5,0x10
    4018:	00d9f7b3          	and	a5,s3,a3
    401c:	00dafab3          	and	s5,s5,a3
    4020:	03578833          	mul	a6,a5,s5
    4024:	02f889b3          	mul	s3,a7,a5
    4028:	01085713          	srli	a4,a6,0x10
    402c:	03560ab3          	mul	s5,a2,s5
    4030:	99d6                	add	s3,s3,s5
    4032:	974e                	add	a4,a4,s3
    4034:	03160633          	mul	a2,a2,a7
    4038:	01577363          	bgeu	a4,s5,403e <__mulsf3+0x1b8>
    403c:	961a                	add	a2,a2,t1
    403e:	67c1                	lui	a5,0x10
    4040:	17fd                	addi	a5,a5,-1
    4042:	00f776b3          	and	a3,a4,a5
    4046:	00f87833          	and	a6,a6,a5
    404a:	06c2                	slli	a3,a3,0x10
    404c:	96c2                	add	a3,a3,a6
    404e:	00669993          	slli	s3,a3,0x6
    4052:	01075793          	srli	a5,a4,0x10
    4056:	013039b3          	snez	s3,s3
    405a:	82e9                	srli	a3,a3,0x1a
    405c:	97b2                	add	a5,a5,a2
    405e:	079a                	slli	a5,a5,0x6
    4060:	00d9e6b3          	or	a3,s3,a3
    4064:	00d7e9b3          	or	s3,a5,a3
    4068:	00499793          	slli	a5,s3,0x4
    406c:	0007d963          	bgez	a5,407e <__mulsf3+0x1f8>
    4070:	0019d713          	srli	a4,s3,0x1
    4074:	0019f793          	andi	a5,s3,1
    4078:	00f769b3          	or	s3,a4,a5
    407c:	842e                	mv	s0,a1
    407e:	07f40713          	addi	a4,s0,127
    4082:	04e05063          	blez	a4,40c2 <__mulsf3+0x23c>
    4086:	0079f793          	andi	a5,s3,7
    408a:	c799                	beqz	a5,4098 <__mulsf3+0x212>
    408c:	00f9f793          	andi	a5,s3,15
    4090:	4691                	li	a3,4
    4092:	00d78363          	beq	a5,a3,4098 <__mulsf3+0x212>
    4096:	0991                	addi	s3,s3,4
    4098:	00499793          	slli	a5,s3,0x4
    409c:	0007d963          	bgez	a5,40ae <__mulsf3+0x228>
    40a0:	f80007b7          	lui	a5,0xf8000
    40a4:	17fd                	addi	a5,a5,-1
    40a6:	00f9f9b3          	and	s3,s3,a5
    40aa:	08040713          	addi	a4,s0,128
    40ae:	0fe00793          	li	a5,254
    40b2:	04e7cb63          	blt	a5,a4,4108 <__mulsf3+0x282>
    40b6:	00699793          	slli	a5,s3,0x6
    40ba:	83a5                	srli	a5,a5,0x9
    40bc:	0ff77713          	andi	a4,a4,255
    40c0:	bd9d                	j	3f36 <__mulsf3+0xb0>
    40c2:	4785                	li	a5,1
    40c4:	40e786b3          	sub	a3,a5,a4
    40c8:	c711                	beqz	a4,40d4 <__mulsf3+0x24e>
    40ca:	466d                	li	a2,27
    40cc:	4701                	li	a4,0
    40ce:	4781                	li	a5,0
    40d0:	e6d643e3          	blt	a2,a3,3f36 <__mulsf3+0xb0>
    40d4:	09e40713          	addi	a4,s0,158
    40d8:	00e99733          	sll	a4,s3,a4
    40dc:	00e03733          	snez	a4,a4
    40e0:	00d9d7b3          	srl	a5,s3,a3
    40e4:	8fd9                	or	a5,a5,a4
    40e6:	0077f713          	andi	a4,a5,7
    40ea:	c719                	beqz	a4,40f8 <__mulsf3+0x272>
    40ec:	00f7f713          	andi	a4,a5,15
    40f0:	4691                	li	a3,4
    40f2:	00d70363          	beq	a4,a3,40f8 <__mulsf3+0x272>
    40f6:	0791                	addi	a5,a5,4
    40f8:	00579713          	slli	a4,a5,0x5
    40fc:	00074c63          	bltz	a4,4114 <__mulsf3+0x28e>
    4100:	079a                	slli	a5,a5,0x6
    4102:	83a5                	srli	a5,a5,0x9
    4104:	4701                	li	a4,0
    4106:	bd05                	j	3f36 <__mulsf3+0xb0>
    4108:	0ff00713          	li	a4,255
    410c:	4781                	li	a5,0
    410e:	b525                	j	3f36 <__mulsf3+0xb0>
    4110:	842e                	mv	s0,a1
    4112:	b7b5                	j	407e <__mulsf3+0x1f8>
    4114:	4705                	li	a4,1
    4116:	4781                	li	a5,0
    4118:	bd39                	j	3f36 <__mulsf3+0xb0>

0000411a <__subsf3>:
    411a:	00800737          	lui	a4,0x800
    411e:	1141                	addi	sp,sp,-16
    4120:	177d                	addi	a4,a4,-1
    4122:	01755693          	srli	a3,a0,0x17
    4126:	0175d813          	srli	a6,a1,0x17
    412a:	00a777b3          	and	a5,a4,a0
    412e:	0ff6f693          	andi	a3,a3,255
    4132:	01f55e93          	srli	t4,a0,0x1f
    4136:	00b77633          	and	a2,a4,a1
    413a:	c226                	sw	s1,4(sp)
    413c:	c04a                	sw	s2,0(sp)
    413e:	0ff87813          	andi	a6,a6,255
    4142:	c606                	sw	ra,12(sp)
    4144:	c422                	sw	s0,8(sp)
    4146:	0ff00313          	li	t1,255
    414a:	8e3e                	mv	t3,a5
    414c:	8936                	mv	s2,a3
    414e:	84f6                	mv	s1,t4
    4150:	00379f13          	slli	t5,a5,0x3
    4154:	81fd                	srli	a1,a1,0x1f
    4156:	00361513          	slli	a0,a2,0x3
    415a:	410688b3          	sub	a7,a3,a6
    415e:	10680263          	beq	a6,t1,4262 <__subsf3+0x148>
    4162:	0015c593          	xori	a1,a1,1
    4166:	10be8c63          	beq	t4,a1,427e <__subsf3+0x164>
    416a:	0d105463          	blez	a7,4232 <__subsf3+0x118>
    416e:	10081063          	bnez	a6,426e <__subsf3+0x154>
    4172:	1e050463          	beqz	a0,435a <__subsf3+0x240>
    4176:	18fd                	addi	a7,a7,-1
    4178:	40af07b3          	sub	a5,t5,a0
    417c:	02088663          	beqz	a7,41a8 <__subsf3+0x8e>
    4180:	0ff00793          	li	a5,255
    4184:	16f68863          	beq	a3,a5,42f4 <__subsf3+0x1da>
    4188:	47ed                	li	a5,27
    418a:	2917c763          	blt	a5,a7,4418 <__subsf3+0x2fe>
    418e:	02000713          	li	a4,32
    4192:	41170733          	sub	a4,a4,a7
    4196:	00e51733          	sll	a4,a0,a4
    419a:	011557b3          	srl	a5,a0,a7
    419e:	00e03733          	snez	a4,a4
    41a2:	8fd9                	or	a5,a5,a4
    41a4:	40ff07b3          	sub	a5,t5,a5
    41a8:	00579713          	slli	a4,a5,0x5
    41ac:	1a075163          	bgez	a4,434e <__subsf3+0x234>
    41b0:	04000437          	lui	s0,0x4000
    41b4:	147d                	addi	s0,s0,-1
    41b6:	8c7d                	and	s0,s0,a5
    41b8:	8522                	mv	a0,s0
    41ba:	25e5                	jal	48a2 <__clzsi2>
    41bc:	156d                	addi	a0,a0,-5
    41be:	00a417b3          	sll	a5,s0,a0
    41c2:	1b254e63          	blt	a0,s2,437e <__subsf3+0x264>
    41c6:	41250533          	sub	a0,a0,s2
    41ca:	00150413          	addi	s0,a0,1
    41ce:	02000713          	li	a4,32
    41d2:	8f01                	sub	a4,a4,s0
    41d4:	00e79733          	sll	a4,a5,a4
    41d8:	00e03733          	snez	a4,a4
    41dc:	0087d7b3          	srl	a5,a5,s0
    41e0:	8fd9                	or	a5,a5,a4
    41e2:	4901                	li	s2,0
    41e4:	0077f713          	andi	a4,a5,7
    41e8:	c719                	beqz	a4,41f6 <__subsf3+0xdc>
    41ea:	00f7f713          	andi	a4,a5,15
    41ee:	4691                	li	a3,4
    41f0:	00d70363          	beq	a4,a3,41f6 <__subsf3+0xdc>
    41f4:	0791                	addi	a5,a5,4
    41f6:	00579713          	slli	a4,a5,0x5
    41fa:	14075e63          	bgez	a4,4356 <__subsf3+0x23c>
    41fe:	00190693          	addi	a3,s2,1 # 800001 <_data_lma+0x7fa0b5>
    4202:	0ff00713          	li	a4,255
    4206:	0014fe93          	andi	t4,s1,1
    420a:	16e68663          	beq	a3,a4,4376 <__subsf3+0x25c>
    420e:	079a                	slli	a5,a5,0x6
    4210:	83a5                	srli	a5,a5,0x9
    4212:	0ff6f693          	andi	a3,a3,255
    4216:	07a6                	slli	a5,a5,0x9
    4218:	40b2                	lw	ra,12(sp)
    421a:	4422                	lw	s0,8(sp)
    421c:	0097d513          	srli	a0,a5,0x9
    4220:	06de                	slli	a3,a3,0x17
    4222:	01fe9793          	slli	a5,t4,0x1f
    4226:	8d55                	or	a0,a0,a3
    4228:	4492                	lw	s1,4(sp)
    422a:	4902                	lw	s2,0(sp)
    422c:	8d5d                	or	a0,a0,a5
    422e:	0141                	addi	sp,sp,16
    4230:	8082                	ret
    4232:	0a089263          	bnez	a7,42d6 <__subsf3+0x1bc>
    4236:	00168713          	addi	a4,a3,1
    423a:	0fe77713          	andi	a4,a4,254
    423e:	14071b63          	bnez	a4,4394 <__subsf3+0x27a>
    4242:	22069463          	bnez	a3,446a <__subsf3+0x350>
    4246:	200f0263          	beqz	t5,444a <__subsf3+0x330>
    424a:	d571                	beqz	a0,4216 <__subsf3+0xfc>
    424c:	40af07b3          	sub	a5,t5,a0
    4250:	00579713          	slli	a4,a5,0x5
    4254:	22075563          	bgez	a4,447e <__subsf3+0x364>
    4258:	41e507b3          	sub	a5,a0,t5
    425c:	4901                	li	s2,0
    425e:	84ae                	mv	s1,a1
    4260:	b751                	j	41e4 <__subsf3+0xca>
    4262:	f00500e3          	beqz	a0,4162 <__subsf3+0x48>
    4266:	0abe8a63          	beq	t4,a1,431a <__subsf3+0x200>
    426a:	fd1054e3          	blez	a7,4232 <__subsf3+0x118>
    426e:	0ff00793          	li	a5,255
    4272:	08f68163          	beq	a3,a5,42f4 <__subsf3+0x1da>
    4276:	040007b7          	lui	a5,0x4000
    427a:	8d5d                	or	a0,a0,a5
    427c:	b731                	j	4188 <__subsf3+0x6e>
    427e:	09105e63          	blez	a7,431a <__subsf3+0x200>
    4282:	08080163          	beqz	a6,4304 <__subsf3+0x1ea>
    4286:	0ff00793          	li	a5,255
    428a:	06f68563          	beq	a3,a5,42f4 <__subsf3+0x1da>
    428e:	040007b7          	lui	a5,0x4000
    4292:	8d5d                	or	a0,a0,a5
    4294:	47ed                	li	a5,27
    4296:	1f17c063          	blt	a5,a7,4476 <__subsf3+0x35c>
    429a:	02000713          	li	a4,32
    429e:	41170733          	sub	a4,a4,a7
    42a2:	00e51733          	sll	a4,a0,a4
    42a6:	011557b3          	srl	a5,a0,a7
    42aa:	00e03733          	snez	a4,a4
    42ae:	8fd9                	or	a5,a5,a4
    42b0:	97fa                	add	a5,a5,t5
    42b2:	00579713          	slli	a4,a5,0x5
    42b6:	08075c63          	bgez	a4,434e <__subsf3+0x234>
    42ba:	0905                	addi	s2,s2,1
    42bc:	0ff00713          	li	a4,255
    42c0:	0ae90b63          	beq	s2,a4,4376 <__subsf3+0x25c>
    42c4:	7e0006b7          	lui	a3,0x7e000
    42c8:	0017d713          	srli	a4,a5,0x1
    42cc:	16fd                	addi	a3,a3,-1
    42ce:	8b85                	andi	a5,a5,1
    42d0:	8f75                	and	a4,a4,a3
    42d2:	8fd9                	or	a5,a5,a4
    42d4:	bf01                	j	41e4 <__subsf3+0xca>
    42d6:	40d80733          	sub	a4,a6,a3
    42da:	10069563          	bnez	a3,43e4 <__subsf3+0x2ca>
    42de:	140f0d63          	beqz	t5,4438 <__subsf3+0x31e>
    42e2:	177d                	addi	a4,a4,-1
    42e4:	1a070363          	beqz	a4,448a <__subsf3+0x370>
    42e8:	0ff00793          	li	a5,255
    42ec:	10f81463          	bne	a6,a5,43f4 <__subsf3+0x2da>
    42f0:	84ae                	mv	s1,a1
    42f2:	8e32                	mv	t3,a2
    42f4:	060e0f63          	beqz	t3,4372 <__subsf3+0x258>
    42f8:	4e81                	li	t4,0
    42fa:	0ff00693          	li	a3,255
    42fe:	004007b7          	lui	a5,0x400
    4302:	bf11                	j	4216 <__subsf3+0xfc>
    4304:	c939                	beqz	a0,435a <__subsf3+0x240>
    4306:	18fd                	addi	a7,a7,-1
    4308:	00af07b3          	add	a5,t5,a0
    430c:	fa0883e3          	beqz	a7,42b2 <__subsf3+0x198>
    4310:	0ff00793          	li	a5,255
    4314:	f8f690e3          	bne	a3,a5,4294 <__subsf3+0x17a>
    4318:	bff1                	j	42f4 <__subsf3+0x1da>
    431a:	08089963          	bnez	a7,43ac <__subsf3+0x292>
    431e:	00168913          	addi	s2,a3,1 # 7e000001 <_eusrstack+0x5dffb001>
    4322:	0fe97713          	andi	a4,s2,254
    4326:	12071663          	bnez	a4,4452 <__subsf3+0x338>
    432a:	10069b63          	bnez	a3,4440 <__subsf3+0x326>
    432e:	160f0363          	beqz	t5,4494 <__subsf3+0x37a>
    4332:	ee0502e3          	beqz	a0,4216 <__subsf3+0xfc>
    4336:	00af07b3          	add	a5,t5,a0
    433a:	00579713          	slli	a4,a5,0x5
    433e:	4901                	li	s2,0
    4340:	00075763          	bgez	a4,434e <__subsf3+0x234>
    4344:	fc000737          	lui	a4,0xfc000
    4348:	177d                	addi	a4,a4,-1
    434a:	8ff9                	and	a5,a5,a4
    434c:	4905                	li	s2,1
    434e:	0077f713          	andi	a4,a5,7
    4352:	e8071ce3          	bnez	a4,41ea <__subsf3+0xd0>
    4356:	0037de13          	srli	t3,a5,0x3
    435a:	0ff00793          	li	a5,255
    435e:	f8f90be3          	beq	s2,a5,42f4 <__subsf3+0x1da>
    4362:	009e1793          	slli	a5,t3,0x9
    4366:	83a5                	srli	a5,a5,0x9
    4368:	0ff97693          	andi	a3,s2,255
    436c:	0014fe93          	andi	t4,s1,1
    4370:	b55d                	j	4216 <__subsf3+0xfc>
    4372:	0014fe93          	andi	t4,s1,1
    4376:	0ff00693          	li	a3,255
    437a:	4781                	li	a5,0
    437c:	bd69                	j	4216 <__subsf3+0xfc>
    437e:	fc000737          	lui	a4,0xfc000
    4382:	177d                	addi	a4,a4,-1
    4384:	8ff9                	and	a5,a5,a4
    4386:	0077f713          	andi	a4,a5,7
    438a:	40a90933          	sub	s2,s2,a0
    438e:	e4071ee3          	bnez	a4,41ea <__subsf3+0xd0>
    4392:	b7d1                	j	4356 <__subsf3+0x23c>
    4394:	40af0433          	sub	s0,t5,a0
    4398:	00541793          	slli	a5,s0,0x5
    439c:	0c07c363          	bltz	a5,4462 <__subsf3+0x348>
    43a0:	e0041ce3          	bnez	s0,41b8 <__subsf3+0x9e>
    43a4:	4e81                	li	t4,0
    43a6:	4681                	li	a3,0
    43a8:	4781                	li	a5,0
    43aa:	b5b5                	j	4216 <__subsf3+0xfc>
    43ac:	40d80733          	sub	a4,a6,a3
    43b0:	c6b5                	beqz	a3,441c <__subsf3+0x302>
    43b2:	0ff00793          	li	a5,255
    43b6:	f2f80ee3          	beq	a6,a5,42f2 <__subsf3+0x1d8>
    43ba:	040007b7          	lui	a5,0x4000
    43be:	00ff6f33          	or	t5,t5,a5
    43c2:	47ed                	li	a5,27
    43c4:	0ce7cd63          	blt	a5,a4,449e <__subsf3+0x384>
    43c8:	02000793          	li	a5,32
    43cc:	8f99                	sub	a5,a5,a4
    43ce:	00ff17b3          	sll	a5,t5,a5
    43d2:	00ef5733          	srl	a4,t5,a4
    43d6:	00f037b3          	snez	a5,a5
    43da:	8f5d                	or	a4,a4,a5
    43dc:	00a707b3          	add	a5,a4,a0
    43e0:	8942                	mv	s2,a6
    43e2:	bdc1                	j	42b2 <__subsf3+0x198>
    43e4:	0ff00793          	li	a5,255
    43e8:	f0f804e3          	beq	a6,a5,42f0 <__subsf3+0x1d6>
    43ec:	040007b7          	lui	a5,0x4000
    43f0:	00ff6f33          	or	t5,t5,a5
    43f4:	47ed                	li	a5,27
    43f6:	08e7c263          	blt	a5,a4,447a <__subsf3+0x360>
    43fa:	02000793          	li	a5,32
    43fe:	8f99                	sub	a5,a5,a4
    4400:	00ff17b3          	sll	a5,t5,a5
    4404:	00ef5733          	srl	a4,t5,a4
    4408:	00f037b3          	snez	a5,a5
    440c:	8fd9                	or	a5,a5,a4
    440e:	40f507b3          	sub	a5,a0,a5
    4412:	8942                	mv	s2,a6
    4414:	84ae                	mv	s1,a1
    4416:	bb49                	j	41a8 <__subsf3+0x8e>
    4418:	4785                	li	a5,1
    441a:	b369                	j	41a4 <__subsf3+0x8a>
    441c:	060f0e63          	beqz	t5,4498 <__subsf3+0x37e>
    4420:	177d                	addi	a4,a4,-1
    4422:	00af07b3          	add	a5,t5,a0
    4426:	8942                	mv	s2,a6
    4428:	e80705e3          	beqz	a4,42b2 <__subsf3+0x198>
    442c:	0ff00793          	li	a5,255
    4430:	f8f819e3          	bne	a6,a5,43c2 <__subsf3+0x2a8>
    4434:	8e32                	mv	t3,a2
    4436:	bd7d                	j	42f4 <__subsf3+0x1da>
    4438:	8e32                	mv	t3,a2
    443a:	8942                	mv	s2,a6
    443c:	84ae                	mv	s1,a1
    443e:	bf31                	j	435a <__subsf3+0x240>
    4440:	ea0f09e3          	beqz	t5,42f2 <__subsf3+0x1d8>
    4444:	ea0508e3          	beqz	a0,42f4 <__subsf3+0x1da>
    4448:	bd45                	j	42f8 <__subsf3+0x1de>
    444a:	cd0d                	beqz	a0,4484 <__subsf3+0x36a>
    444c:	8eae                	mv	t4,a1
    444e:	87b2                	mv	a5,a2
    4450:	b3d9                	j	4216 <__subsf3+0xfc>
    4452:	0ff00793          	li	a5,255
    4456:	f2f900e3          	beq	s2,a5,4376 <__subsf3+0x25c>
    445a:	00af07b3          	add	a5,t5,a0
    445e:	8385                	srli	a5,a5,0x1
    4460:	b5fd                	j	434e <__subsf3+0x234>
    4462:	41e50433          	sub	s0,a0,t5
    4466:	84ae                	mv	s1,a1
    4468:	bb81                	j	41b8 <__subsf3+0x9e>
    446a:	fc0f1de3          	bnez	t5,4444 <__subsf3+0x32a>
    446e:	e80505e3          	beqz	a0,42f8 <__subsf3+0x1de>
    4472:	84ae                	mv	s1,a1
    4474:	bdbd                	j	42f2 <__subsf3+0x1d8>
    4476:	4785                	li	a5,1
    4478:	bd25                	j	42b0 <__subsf3+0x196>
    447a:	4785                	li	a5,1
    447c:	bf49                	j	440e <__subsf3+0x2f4>
    447e:	4901                	li	s2,0
    4480:	ec0797e3          	bnez	a5,434e <__subsf3+0x234>
    4484:	4e81                	li	t4,0
    4486:	4781                	li	a5,0
    4488:	b379                	j	4216 <__subsf3+0xfc>
    448a:	41e507b3          	sub	a5,a0,t5
    448e:	8942                	mv	s2,a6
    4490:	84ae                	mv	s1,a1
    4492:	bb19                	j	41a8 <__subsf3+0x8e>
    4494:	87b2                	mv	a5,a2
    4496:	b341                	j	4216 <__subsf3+0xfc>
    4498:	8e32                	mv	t3,a2
    449a:	8942                	mv	s2,a6
    449c:	bd7d                	j	435a <__subsf3+0x240>
    449e:	4705                	li	a4,1
    44a0:	bf35                	j	43dc <__subsf3+0x2c2>

000044a2 <__fixunssfsi>:
    44a2:	01755713          	srli	a4,a0,0x17
    44a6:	00800637          	lui	a2,0x800
    44aa:	fff60793          	addi	a5,a2,-1 # 7fffff <_data_lma+0x7fa0b3>
    44ae:	0ff77713          	andi	a4,a4,255
    44b2:	07e00593          	li	a1,126
    44b6:	00a7f6b3          	and	a3,a5,a0
    44ba:	01f55793          	srli	a5,a0,0x1f
    44be:	4501                	li	a0,0
    44c0:	00e5f463          	bgeu	a1,a4,44c8 <__fixunssfsi+0x26>
    44c4:	c399                	beqz	a5,44ca <__fixunssfsi+0x28>
    44c6:	8082                	ret
    44c8:	8082                	ret
    44ca:	09e00793          	li	a5,158
    44ce:	557d                	li	a0,-1
    44d0:	fee7ebe3          	bltu	a5,a4,44c6 <__fixunssfsi+0x24>
    44d4:	09500593          	li	a1,149
    44d8:	00c6e7b3          	or	a5,a3,a2
    44dc:	00e5d763          	bge	a1,a4,44ea <__fixunssfsi+0x48>
    44e0:	f6a70713          	addi	a4,a4,-150 # fbffff6a <_eusrstack+0xdbffaf6a>
    44e4:	00e79533          	sll	a0,a5,a4
    44e8:	8082                	ret
    44ea:	09600513          	li	a0,150
    44ee:	40e50733          	sub	a4,a0,a4
    44f2:	00e7d533          	srl	a0,a5,a4
    44f6:	8082                	ret

000044f8 <__floatsisf>:
    44f8:	1141                	addi	sp,sp,-16
    44fa:	c606                	sw	ra,12(sp)
    44fc:	c422                	sw	s0,8(sp)
    44fe:	c226                	sw	s1,4(sp)
    4500:	cd0d                	beqz	a0,453a <__floatsisf+0x42>
    4502:	41f55793          	srai	a5,a0,0x1f
    4506:	00a7c433          	xor	s0,a5,a0
    450a:	8c1d                	sub	s0,s0,a5
    450c:	84aa                	mv	s1,a0
    450e:	8522                	mv	a0,s0
    4510:	2e49                	jal	48a2 <__clzsi2>
    4512:	09e00793          	li	a5,158
    4516:	40a78733          	sub	a4,a5,a0
    451a:	09600793          	li	a5,150
    451e:	80fd                	srli	s1,s1,0x1f
    4520:	02e7cc63          	blt	a5,a4,4558 <__floatsisf+0x60>
    4524:	46a1                	li	a3,8
    4526:	0ff77793          	andi	a5,a4,255
    452a:	00a6d563          	bge	a3,a0,4534 <__floatsisf+0x3c>
    452e:	1561                	addi	a0,a0,-8
    4530:	00a41433          	sll	s0,s0,a0
    4534:	0426                	slli	s0,s0,0x9
    4536:	8025                	srli	s0,s0,0x9
    4538:	a021                	j	4540 <__floatsisf+0x48>
    453a:	4481                	li	s1,0
    453c:	4781                	li	a5,0
    453e:	4401                	li	s0,0
    4540:	0426                	slli	s0,s0,0x9
    4542:	00945513          	srli	a0,s0,0x9
    4546:	40b2                	lw	ra,12(sp)
    4548:	4422                	lw	s0,8(sp)
    454a:	07de                	slli	a5,a5,0x17
    454c:	04fe                	slli	s1,s1,0x1f
    454e:	8d5d                	or	a0,a0,a5
    4550:	8d45                	or	a0,a0,s1
    4552:	4492                	lw	s1,4(sp)
    4554:	0141                	addi	sp,sp,16
    4556:	8082                	ret
    4558:	09900793          	li	a5,153
    455c:	00e7dd63          	bge	a5,a4,4576 <__floatsisf+0x7e>
    4560:	01b50793          	addi	a5,a0,27
    4564:	4695                	li	a3,5
    4566:	00f417b3          	sll	a5,s0,a5
    456a:	8e89                	sub	a3,a3,a0
    456c:	00d45433          	srl	s0,s0,a3
    4570:	00f037b3          	snez	a5,a5
    4574:	8c5d                	or	s0,s0,a5
    4576:	4795                	li	a5,5
    4578:	00a7d663          	bge	a5,a0,4584 <__floatsisf+0x8c>
    457c:	ffb50793          	addi	a5,a0,-5
    4580:	00f41433          	sll	s0,s0,a5
    4584:	fc0006b7          	lui	a3,0xfc000
    4588:	16fd                	addi	a3,a3,-1
    458a:	00747793          	andi	a5,s0,7
    458e:	00d47633          	and	a2,s0,a3
    4592:	c385                	beqz	a5,45b2 <__floatsisf+0xba>
    4594:	00f47793          	andi	a5,s0,15
    4598:	4591                	li	a1,4
    459a:	00b78c63          	beq	a5,a1,45b2 <__floatsisf+0xba>
    459e:	0611                	addi	a2,a2,4
    45a0:	00561793          	slli	a5,a2,0x5
    45a4:	0007d763          	bgez	a5,45b2 <__floatsisf+0xba>
    45a8:	09f00793          	li	a5,159
    45ac:	8e75                	and	a2,a2,a3
    45ae:	40a78733          	sub	a4,a5,a0
    45b2:	00661413          	slli	s0,a2,0x6
    45b6:	8025                	srli	s0,s0,0x9
    45b8:	0ff77793          	andi	a5,a4,255
    45bc:	b751                	j	4540 <__floatsisf+0x48>

000045be <__floatunsisf>:
    45be:	1141                	addi	sp,sp,-16
    45c0:	c606                	sw	ra,12(sp)
    45c2:	c422                	sw	s0,8(sp)
    45c4:	cd15                	beqz	a0,4600 <__floatunsisf+0x42>
    45c6:	842a                	mv	s0,a0
    45c8:	2ce9                	jal	48a2 <__clzsi2>
    45ca:	09e00793          	li	a5,158
    45ce:	40a78733          	sub	a4,a5,a0
    45d2:	09600793          	li	a5,150
    45d6:	04e7c063          	blt	a5,a4,4616 <__floatunsisf+0x58>
    45da:	46a1                	li	a3,8
    45dc:	0ff77793          	andi	a5,a4,255
    45e0:	00a6d563          	bge	a3,a0,45ea <__floatunsisf+0x2c>
    45e4:	1561                	addi	a0,a0,-8
    45e6:	00a41433          	sll	s0,s0,a0
    45ea:	0426                	slli	s0,s0,0x9
    45ec:	8025                	srli	s0,s0,0x9
    45ee:	0426                	slli	s0,s0,0x9
    45f0:	00945513          	srli	a0,s0,0x9
    45f4:	40b2                	lw	ra,12(sp)
    45f6:	4422                	lw	s0,8(sp)
    45f8:	07de                	slli	a5,a5,0x17
    45fa:	8d5d                	or	a0,a0,a5
    45fc:	0141                	addi	sp,sp,16
    45fe:	8082                	ret
    4600:	4401                	li	s0,0
    4602:	0426                	slli	s0,s0,0x9
    4604:	00945513          	srli	a0,s0,0x9
    4608:	40b2                	lw	ra,12(sp)
    460a:	4422                	lw	s0,8(sp)
    460c:	4781                	li	a5,0
    460e:	07de                	slli	a5,a5,0x17
    4610:	8d5d                	or	a0,a0,a5
    4612:	0141                	addi	sp,sp,16
    4614:	8082                	ret
    4616:	09900793          	li	a5,153
    461a:	00e7dd63          	bge	a5,a4,4634 <__floatunsisf+0x76>
    461e:	01b50793          	addi	a5,a0,27
    4622:	4695                	li	a3,5
    4624:	00f417b3          	sll	a5,s0,a5
    4628:	8e89                	sub	a3,a3,a0
    462a:	00f037b3          	snez	a5,a5
    462e:	00d45433          	srl	s0,s0,a3
    4632:	8c5d                	or	s0,s0,a5
    4634:	4795                	li	a5,5
    4636:	00a7d663          	bge	a5,a0,4642 <__floatunsisf+0x84>
    463a:	ffb50793          	addi	a5,a0,-5
    463e:	00f41433          	sll	s0,s0,a5
    4642:	fc0006b7          	lui	a3,0xfc000
    4646:	16fd                	addi	a3,a3,-1
    4648:	00747793          	andi	a5,s0,7
    464c:	00d47633          	and	a2,s0,a3
    4650:	c385                	beqz	a5,4670 <__floatunsisf+0xb2>
    4652:	00f47793          	andi	a5,s0,15
    4656:	4591                	li	a1,4
    4658:	00b78c63          	beq	a5,a1,4670 <__floatunsisf+0xb2>
    465c:	0611                	addi	a2,a2,4
    465e:	00561793          	slli	a5,a2,0x5
    4662:	0007d763          	bgez	a5,4670 <__floatunsisf+0xb2>
    4666:	09f00793          	li	a5,159
    466a:	8e75                	and	a2,a2,a3
    466c:	40a78733          	sub	a4,a5,a0
    4670:	00661413          	slli	s0,a2,0x6
    4674:	8025                	srli	s0,s0,0x9
    4676:	0426                	slli	s0,s0,0x9
    4678:	00945513          	srli	a0,s0,0x9
    467c:	40b2                	lw	ra,12(sp)
    467e:	4422                	lw	s0,8(sp)
    4680:	0ff77793          	andi	a5,a4,255
    4684:	07de                	slli	a5,a5,0x17
    4686:	8d5d                	or	a0,a0,a5
    4688:	0141                	addi	sp,sp,16
    468a:	8082                	ret

0000468c <__extendsfdf2>:
    468c:	01755713          	srli	a4,a0,0x17
    4690:	0ff77713          	andi	a4,a4,255
    4694:	1141                	addi	sp,sp,-16
    4696:	00170793          	addi	a5,a4,1
    469a:	c422                	sw	s0,8(sp)
    469c:	c226                	sw	s1,4(sp)
    469e:	00951413          	slli	s0,a0,0x9
    46a2:	c606                	sw	ra,12(sp)
    46a4:	0fe7f793          	andi	a5,a5,254
    46a8:	8025                	srli	s0,s0,0x9
    46aa:	01f55493          	srli	s1,a0,0x1f
    46ae:	c785                	beqz	a5,46d6 <__extendsfdf2+0x4a>
    46b0:	00345793          	srli	a5,s0,0x3
    46b4:	38070713          	addi	a4,a4,896
    46b8:	0476                	slli	s0,s0,0x1d
    46ba:	07b2                	slli	a5,a5,0xc
    46bc:	0752                	slli	a4,a4,0x14
    46be:	83b1                	srli	a5,a5,0xc
    46c0:	01f49513          	slli	a0,s1,0x1f
    46c4:	8fd9                	or	a5,a5,a4
    46c6:	8fc9                	or	a5,a5,a0
    46c8:	40b2                	lw	ra,12(sp)
    46ca:	8522                	mv	a0,s0
    46cc:	4422                	lw	s0,8(sp)
    46ce:	4492                	lw	s1,4(sp)
    46d0:	85be                	mv	a1,a5
    46d2:	0141                	addi	sp,sp,16
    46d4:	8082                	ret
    46d6:	eb05                	bnez	a4,4706 <__extendsfdf2+0x7a>
    46d8:	c439                	beqz	s0,4726 <__extendsfdf2+0x9a>
    46da:	8522                	mv	a0,s0
    46dc:	22d9                	jal	48a2 <__clzsi2>
    46de:	47a9                	li	a5,10
    46e0:	04a7c663          	blt	a5,a0,472c <__extendsfdf2+0xa0>
    46e4:	472d                	li	a4,11
    46e6:	8f09                	sub	a4,a4,a0
    46e8:	01550793          	addi	a5,a0,21
    46ec:	00e45733          	srl	a4,s0,a4
    46f0:	00f41433          	sll	s0,s0,a5
    46f4:	00c71793          	slli	a5,a4,0xc
    46f8:	38900713          	li	a4,905
    46fc:	8f09                	sub	a4,a4,a0
    46fe:	83b1                	srli	a5,a5,0xc
    4700:	7ff77713          	andi	a4,a4,2047
    4704:	bf5d                	j	46ba <__extendsfdf2+0x2e>
    4706:	cc01                	beqz	s0,471e <__extendsfdf2+0x92>
    4708:	00345713          	srli	a4,s0,0x3
    470c:	000807b7          	lui	a5,0x80
    4710:	8fd9                	or	a5,a5,a4
    4712:	07b2                	slli	a5,a5,0xc
    4714:	0476                	slli	s0,s0,0x1d
    4716:	83b1                	srli	a5,a5,0xc
    4718:	7ff00713          	li	a4,2047
    471c:	bf79                	j	46ba <__extendsfdf2+0x2e>
    471e:	7ff00713          	li	a4,2047
    4722:	4781                	li	a5,0
    4724:	bf59                	j	46ba <__extendsfdf2+0x2e>
    4726:	4701                	li	a4,0
    4728:	4781                	li	a5,0
    472a:	bf41                	j	46ba <__extendsfdf2+0x2e>
    472c:	ff550713          	addi	a4,a0,-11
    4730:	00e41733          	sll	a4,s0,a4
    4734:	4401                	li	s0,0
    4736:	bf7d                	j	46f4 <__extendsfdf2+0x68>

00004738 <__truncdfsf2>:
    4738:	0145d693          	srli	a3,a1,0x14
    473c:	00c59793          	slli	a5,a1,0xc
    4740:	7ff6f693          	andi	a3,a3,2047
    4744:	83b1                	srli	a5,a5,0xc
    4746:	00168613          	addi	a2,a3,1 # fc000001 <_eusrstack+0xdbffb001>
    474a:	078e                	slli	a5,a5,0x3
    474c:	01d55713          	srli	a4,a0,0x1d
    4750:	7fe67613          	andi	a2,a2,2046
    4754:	81fd                	srli	a1,a1,0x1f
    4756:	8f5d                	or	a4,a4,a5
    4758:	00351893          	slli	a7,a0,0x3
    475c:	ce35                	beqz	a2,47d8 <__truncdfsf2+0xa0>
    475e:	c8068813          	addi	a6,a3,-896
    4762:	0fe00793          	li	a5,254
    4766:	0107dd63          	bge	a5,a6,4780 <__truncdfsf2+0x48>
    476a:	4781                	li	a5,0
    476c:	00979513          	slli	a0,a5,0x9
    4770:	0ff00693          	li	a3,255
    4774:	06de                	slli	a3,a3,0x17
    4776:	8125                	srli	a0,a0,0x9
    4778:	05fe                	slli	a1,a1,0x1f
    477a:	8d55                	or	a0,a0,a3
    477c:	8d4d                	or	a0,a0,a1
    477e:	8082                	ret
    4780:	0b005563          	blez	a6,482a <__truncdfsf2+0xf2>
    4784:	00651793          	slli	a5,a0,0x6
    4788:	070e                	slli	a4,a4,0x3
    478a:	00f037b3          	snez	a5,a5
    478e:	8fd9                	or	a5,a5,a4
    4790:	01d8d893          	srli	a7,a7,0x1d
    4794:	0117e7b3          	or	a5,a5,a7
    4798:	0077f713          	andi	a4,a5,7
    479c:	10070163          	beqz	a4,489e <__truncdfsf2+0x166>
    47a0:	00f7f713          	andi	a4,a5,15
    47a4:	4691                	li	a3,4
    47a6:	00d70363          	beq	a4,a3,47ac <__truncdfsf2+0x74>
    47aa:	0791                	addi	a5,a5,4
    47ac:	04000737          	lui	a4,0x4000
    47b0:	8f7d                	and	a4,a4,a5
    47b2:	c775                	beqz	a4,489e <__truncdfsf2+0x166>
    47b4:	00180713          	addi	a4,a6,1
    47b8:	0ff00613          	li	a2,255
    47bc:	0ff77693          	andi	a3,a4,255
    47c0:	fac705e3          	beq	a4,a2,476a <__truncdfsf2+0x32>
    47c4:	079a                	slli	a5,a5,0x6
    47c6:	83a5                	srli	a5,a5,0x9
    47c8:	00979513          	slli	a0,a5,0x9
    47cc:	06de                	slli	a3,a3,0x17
    47ce:	8125                	srli	a0,a0,0x9
    47d0:	05fe                	slli	a1,a1,0x1f
    47d2:	8d55                	or	a0,a0,a3
    47d4:	8d4d                	or	a0,a0,a1
    47d6:	8082                	ret
    47d8:	011767b3          	or	a5,a4,a7
    47dc:	ee99                	bnez	a3,47fa <__truncdfsf2+0xc2>
    47de:	cf85                	beqz	a5,4816 <__truncdfsf2+0xde>
    47e0:	4795                	li	a5,5
    47e2:	079a                	slli	a5,a5,0x6
    47e4:	83a5                	srli	a5,a5,0x9
    47e6:	00979513          	slli	a0,a5,0x9
    47ea:	0ff6f693          	andi	a3,a3,255
    47ee:	06de                	slli	a3,a3,0x17
    47f0:	8125                	srli	a0,a0,0x9
    47f2:	05fe                	slli	a1,a1,0x1f
    47f4:	8d55                	or	a0,a0,a3
    47f6:	8d4d                	or	a0,a0,a1
    47f8:	8082                	ret
    47fa:	dba5                	beqz	a5,476a <__truncdfsf2+0x32>
    47fc:	004007b7          	lui	a5,0x400
    4800:	00979513          	slli	a0,a5,0x9
    4804:	0ff00693          	li	a3,255
    4808:	06de                	slli	a3,a3,0x17
    480a:	4581                	li	a1,0
    480c:	8125                	srli	a0,a0,0x9
    480e:	05fe                	slli	a1,a1,0x1f
    4810:	8d55                	or	a0,a0,a3
    4812:	8d4d                	or	a0,a0,a1
    4814:	8082                	ret
    4816:	4781                	li	a5,0
    4818:	00979513          	slli	a0,a5,0x9
    481c:	4681                	li	a3,0
    481e:	06de                	slli	a3,a3,0x17
    4820:	8125                	srli	a0,a0,0x9
    4822:	05fe                	slli	a1,a1,0x1f
    4824:	8d55                	or	a0,a0,a3
    4826:	8d4d                	or	a0,a0,a1
    4828:	8082                	ret
    482a:	57a5                	li	a5,-23
    482c:	04f84863          	blt	a6,a5,487c <__truncdfsf2+0x144>
    4830:	47f9                	li	a5,30
    4832:	00800637          	lui	a2,0x800
    4836:	410787b3          	sub	a5,a5,a6
    483a:	457d                	li	a0,31
    483c:	8e59                	or	a2,a2,a4
    483e:	04f55163          	bge	a0,a5,4880 <__truncdfsf2+0x148>
    4842:	5779                	li	a4,-2
    4844:	41070733          	sub	a4,a4,a6
    4848:	02000513          	li	a0,32
    484c:	00e65733          	srl	a4,a2,a4
    4850:	00a78863          	beq	a5,a0,4860 <__truncdfsf2+0x128>
    4854:	ca268693          	addi	a3,a3,-862
    4858:	00d616b3          	sll	a3,a2,a3
    485c:	00d8e8b3          	or	a7,a7,a3
    4860:	011037b3          	snez	a5,a7
    4864:	8fd9                	or	a5,a5,a4
    4866:	0077f713          	andi	a4,a5,7
    486a:	4801                	li	a6,0
    486c:	fb15                	bnez	a4,47a0 <__truncdfsf2+0x68>
    486e:	00579713          	slli	a4,a5,0x5
    4872:	4685                	li	a3,1
    4874:	f40748e3          	bltz	a4,47c4 <__truncdfsf2+0x8c>
    4878:	4681                	li	a3,0
    487a:	b7a5                	j	47e2 <__truncdfsf2+0xaa>
    487c:	4681                	li	a3,0
    487e:	b78d                	j	47e0 <__truncdfsf2+0xa8>
    4880:	c8268693          	addi	a3,a3,-894
    4884:	00d89733          	sll	a4,a7,a3
    4888:	00e03733          	snez	a4,a4
    488c:	00d616b3          	sll	a3,a2,a3
    4890:	00f8d8b3          	srl	a7,a7,a5
    4894:	00d767b3          	or	a5,a4,a3
    4898:	00f8e7b3          	or	a5,a7,a5
    489c:	b7e9                	j	4866 <__truncdfsf2+0x12e>
    489e:	86c2                	mv	a3,a6
    48a0:	b789                	j	47e2 <__truncdfsf2+0xaa>

000048a2 <__clzsi2>:
    48a2:	67c1                	lui	a5,0x10
    48a4:	02f57c63          	bgeu	a0,a5,48dc <__clzsi2+0x3a>
    48a8:	0ff00793          	li	a5,255
    48ac:	02000713          	li	a4,32
    48b0:	00a7eb63          	bltu	a5,a0,48c6 <__clzsi2+0x24>
    48b4:	00001797          	auipc	a5,0x1
    48b8:	4fc78793          	addi	a5,a5,1276 # 5db0 <__clz_tab>
    48bc:	97aa                	add	a5,a5,a0
    48be:	2388                	lbu	a0,0(a5)
    48c0:	40a70533          	sub	a0,a4,a0
    48c4:	8082                	ret
    48c6:	8121                	srli	a0,a0,0x8
    48c8:	00001797          	auipc	a5,0x1
    48cc:	4e878793          	addi	a5,a5,1256 # 5db0 <__clz_tab>
    48d0:	97aa                	add	a5,a5,a0
    48d2:	2388                	lbu	a0,0(a5)
    48d4:	4761                	li	a4,24
    48d6:	40a70533          	sub	a0,a4,a0
    48da:	8082                	ret
    48dc:	010007b7          	lui	a5,0x1000
    48e0:	00f56d63          	bltu	a0,a5,48fa <__clzsi2+0x58>
    48e4:	8161                	srli	a0,a0,0x18
    48e6:	00001797          	auipc	a5,0x1
    48ea:	4ca78793          	addi	a5,a5,1226 # 5db0 <__clz_tab>
    48ee:	97aa                	add	a5,a5,a0
    48f0:	2388                	lbu	a0,0(a5)
    48f2:	4721                	li	a4,8
    48f4:	40a70533          	sub	a0,a4,a0
    48f8:	8082                	ret
    48fa:	8141                	srli	a0,a0,0x10
    48fc:	00001797          	auipc	a5,0x1
    4900:	4b478793          	addi	a5,a5,1204 # 5db0 <__clz_tab>
    4904:	97aa                	add	a5,a5,a0
    4906:	2388                	lbu	a0,0(a5)
    4908:	4741                	li	a4,16
    490a:	40a70533          	sub	a0,a4,a0
    490e:	8082                	ret

00004910 <__errno>:
    4910:	81c18793          	addi	a5,gp,-2020 # 200001ac <_impure_ptr>
    4914:	4388                	lw	a0,0(a5)
    4916:	8082                	ret

00004918 <iprintf>:
    4918:	7139                	addi	sp,sp,-64
    491a:	da3e                	sw	a5,52(sp)
    491c:	d22e                	sw	a1,36(sp)
    491e:	d432                	sw	a2,40(sp)
    4920:	d636                	sw	a3,44(sp)
    4922:	d83a                	sw	a4,48(sp)
    4924:	dc42                	sw	a6,56(sp)
    4926:	de46                	sw	a7,60(sp)
    4928:	81c18793          	addi	a5,gp,-2020 # 200001ac <_impure_ptr>
    492c:	cc22                	sw	s0,24(sp)
    492e:	4380                	lw	s0,0(a5)
    4930:	ca26                	sw	s1,20(sp)
    4932:	ce06                	sw	ra,28(sp)
    4934:	84aa                	mv	s1,a0
    4936:	c409                	beqz	s0,4940 <iprintf+0x28>
    4938:	4c1c                	lw	a5,24(s0)
    493a:	e399                	bnez	a5,4940 <iprintf+0x28>
    493c:	8522                	mv	a0,s0
    493e:	29f5                	jal	4e3a <__sinit>
    4940:	440c                	lw	a1,8(s0)
    4942:	1054                	addi	a3,sp,36
    4944:	8626                	mv	a2,s1
    4946:	8522                	mv	a0,s0
    4948:	c636                	sw	a3,12(sp)
    494a:	12b000ef          	jal	ra,5274 <_vfiprintf_r>
    494e:	40f2                	lw	ra,28(sp)
    4950:	4462                	lw	s0,24(sp)
    4952:	44d2                	lw	s1,20(sp)
    4954:	6121                	addi	sp,sp,64
    4956:	8082                	ret

00004958 <_puts_r>:
    4958:	1101                	addi	sp,sp,-32
    495a:	ca26                	sw	s1,20(sp)
    495c:	c84a                	sw	s2,16(sp)
    495e:	ce06                	sw	ra,28(sp)
    4960:	cc22                	sw	s0,24(sp)
    4962:	c64e                	sw	s3,12(sp)
    4964:	c452                	sw	s4,8(sp)
    4966:	84aa                	mv	s1,a0
    4968:	892e                	mv	s2,a1
    496a:	c501                	beqz	a0,4972 <_puts_r+0x1a>
    496c:	4d1c                	lw	a5,24(a0)
    496e:	e391                	bnez	a5,4972 <_puts_r+0x1a>
    4970:	21e9                	jal	4e3a <__sinit>
    4972:	4c9c                	lw	a5,24(s1)
    4974:	4480                	lw	s0,8(s1)
    4976:	e399                	bnez	a5,497c <_puts_r+0x24>
    4978:	8526                	mv	a0,s1
    497a:	21c1                	jal	4e3a <__sinit>
    497c:	00001797          	auipc	a5,0x1
    4980:	55478793          	addi	a5,a5,1364 # 5ed0 <__sf_fake_stdin>
    4984:	02f41b63          	bne	s0,a5,49ba <_puts_r+0x62>
    4988:	40c0                	lw	s0,4(s1)
    498a:	245e                	lhu	a5,12(s0)
    498c:	8ba1                	andi	a5,a5,8
    498e:	c7b1                	beqz	a5,49da <_puts_r+0x82>
    4990:	481c                	lw	a5,16(s0)
    4992:	c7a1                	beqz	a5,49da <_puts_r+0x82>
    4994:	59fd                	li	s3,-1
    4996:	4a29                	li	s4,10
    4998:	441c                	lw	a5,8(s0)
    499a:	00094583          	lbu	a1,0(s2)
    499e:	17fd                	addi	a5,a5,-1
    49a0:	e9b1                	bnez	a1,49f4 <_puts_r+0x9c>
    49a2:	c41c                	sw	a5,8(s0)
    49a4:	0607dd63          	bgez	a5,4a1e <_puts_r+0xc6>
    49a8:	8622                	mv	a2,s0
    49aa:	45a9                	li	a1,10
    49ac:	8526                	mv	a0,s1
    49ae:	2061                	jal	4a36 <__swbuf_r>
    49b0:	57fd                	li	a5,-1
    49b2:	02f50863          	beq	a0,a5,49e2 <_puts_r+0x8a>
    49b6:	4529                	li	a0,10
    49b8:	a035                	j	49e4 <_puts_r+0x8c>
    49ba:	00001797          	auipc	a5,0x1
    49be:	53678793          	addi	a5,a5,1334 # 5ef0 <__sf_fake_stdout>
    49c2:	00f41463          	bne	s0,a5,49ca <_puts_r+0x72>
    49c6:	4480                	lw	s0,8(s1)
    49c8:	b7c9                	j	498a <_puts_r+0x32>
    49ca:	00001797          	auipc	a5,0x1
    49ce:	4e678793          	addi	a5,a5,1254 # 5eb0 <__sf_fake_stderr>
    49d2:	faf41ce3          	bne	s0,a5,498a <_puts_r+0x32>
    49d6:	44c0                	lw	s0,12(s1)
    49d8:	bf4d                	j	498a <_puts_r+0x32>
    49da:	85a2                	mv	a1,s0
    49dc:	8526                	mv	a0,s1
    49de:	2a11                	jal	4af2 <__swsetup_r>
    49e0:	d955                	beqz	a0,4994 <_puts_r+0x3c>
    49e2:	557d                	li	a0,-1
    49e4:	40f2                	lw	ra,28(sp)
    49e6:	4462                	lw	s0,24(sp)
    49e8:	44d2                	lw	s1,20(sp)
    49ea:	4942                	lw	s2,16(sp)
    49ec:	49b2                	lw	s3,12(sp)
    49ee:	4a22                	lw	s4,8(sp)
    49f0:	6105                	addi	sp,sp,32
    49f2:	8082                	ret
    49f4:	c41c                	sw	a5,8(s0)
    49f6:	0905                	addi	s2,s2,1
    49f8:	0007d763          	bgez	a5,4a06 <_puts_r+0xae>
    49fc:	4c18                	lw	a4,24(s0)
    49fe:	00e7ca63          	blt	a5,a4,4a12 <_puts_r+0xba>
    4a02:	01458863          	beq	a1,s4,4a12 <_puts_r+0xba>
    4a06:	401c                	lw	a5,0(s0)
    4a08:	00178713          	addi	a4,a5,1
    4a0c:	c018                	sw	a4,0(s0)
    4a0e:	a38c                	sb	a1,0(a5)
    4a10:	b761                	j	4998 <_puts_r+0x40>
    4a12:	8622                	mv	a2,s0
    4a14:	8526                	mv	a0,s1
    4a16:	2005                	jal	4a36 <__swbuf_r>
    4a18:	f93510e3          	bne	a0,s3,4998 <_puts_r+0x40>
    4a1c:	b7d9                	j	49e2 <_puts_r+0x8a>
    4a1e:	401c                	lw	a5,0(s0)
    4a20:	00178713          	addi	a4,a5,1
    4a24:	c018                	sw	a4,0(s0)
    4a26:	4729                	li	a4,10
    4a28:	a398                	sb	a4,0(a5)
    4a2a:	b771                	j	49b6 <_puts_r+0x5e>

00004a2c <puts>:
    4a2c:	81c18793          	addi	a5,gp,-2020 # 200001ac <_impure_ptr>
    4a30:	85aa                	mv	a1,a0
    4a32:	4388                	lw	a0,0(a5)
    4a34:	b715                	j	4958 <_puts_r>

00004a36 <__swbuf_r>:
    4a36:	1101                	addi	sp,sp,-32
    4a38:	cc22                	sw	s0,24(sp)
    4a3a:	ca26                	sw	s1,20(sp)
    4a3c:	c84a                	sw	s2,16(sp)
    4a3e:	ce06                	sw	ra,28(sp)
    4a40:	c64e                	sw	s3,12(sp)
    4a42:	84aa                	mv	s1,a0
    4a44:	892e                	mv	s2,a1
    4a46:	8432                	mv	s0,a2
    4a48:	c501                	beqz	a0,4a50 <__swbuf_r+0x1a>
    4a4a:	4d1c                	lw	a5,24(a0)
    4a4c:	e391                	bnez	a5,4a50 <__swbuf_r+0x1a>
    4a4e:	26f5                	jal	4e3a <__sinit>
    4a50:	00001797          	auipc	a5,0x1
    4a54:	48078793          	addi	a5,a5,1152 # 5ed0 <__sf_fake_stdin>
    4a58:	06f41763          	bne	s0,a5,4ac6 <__swbuf_r+0x90>
    4a5c:	40c0                	lw	s0,4(s1)
    4a5e:	4c1c                	lw	a5,24(s0)
    4a60:	c41c                	sw	a5,8(s0)
    4a62:	245e                	lhu	a5,12(s0)
    4a64:	8ba1                	andi	a5,a5,8
    4a66:	c3c1                	beqz	a5,4ae6 <__swbuf_r+0xb0>
    4a68:	481c                	lw	a5,16(s0)
    4a6a:	cfb5                	beqz	a5,4ae6 <__swbuf_r+0xb0>
    4a6c:	481c                	lw	a5,16(s0)
    4a6e:	4008                	lw	a0,0(s0)
    4a70:	0ff97993          	andi	s3,s2,255
    4a74:	0ff97913          	andi	s2,s2,255
    4a78:	8d1d                	sub	a0,a0,a5
    4a7a:	485c                	lw	a5,20(s0)
    4a7c:	00f54663          	blt	a0,a5,4a88 <__swbuf_r+0x52>
    4a80:	85a2                	mv	a1,s0
    4a82:	8526                	mv	a0,s1
    4a84:	2c69                	jal	4d1e <_fflush_r>
    4a86:	e525                	bnez	a0,4aee <__swbuf_r+0xb8>
    4a88:	441c                	lw	a5,8(s0)
    4a8a:	0505                	addi	a0,a0,1
    4a8c:	17fd                	addi	a5,a5,-1
    4a8e:	c41c                	sw	a5,8(s0)
    4a90:	401c                	lw	a5,0(s0)
    4a92:	00178713          	addi	a4,a5,1
    4a96:	c018                	sw	a4,0(s0)
    4a98:	01378023          	sb	s3,0(a5)
    4a9c:	485c                	lw	a5,20(s0)
    4a9e:	00a78863          	beq	a5,a0,4aae <__swbuf_r+0x78>
    4aa2:	245e                	lhu	a5,12(s0)
    4aa4:	8b85                	andi	a5,a5,1
    4aa6:	cb81                	beqz	a5,4ab6 <__swbuf_r+0x80>
    4aa8:	47a9                	li	a5,10
    4aaa:	00f91663          	bne	s2,a5,4ab6 <__swbuf_r+0x80>
    4aae:	85a2                	mv	a1,s0
    4ab0:	8526                	mv	a0,s1
    4ab2:	24b5                	jal	4d1e <_fflush_r>
    4ab4:	ed0d                	bnez	a0,4aee <__swbuf_r+0xb8>
    4ab6:	40f2                	lw	ra,28(sp)
    4ab8:	4462                	lw	s0,24(sp)
    4aba:	854a                	mv	a0,s2
    4abc:	44d2                	lw	s1,20(sp)
    4abe:	4942                	lw	s2,16(sp)
    4ac0:	49b2                	lw	s3,12(sp)
    4ac2:	6105                	addi	sp,sp,32
    4ac4:	8082                	ret
    4ac6:	00001797          	auipc	a5,0x1
    4aca:	42a78793          	addi	a5,a5,1066 # 5ef0 <__sf_fake_stdout>
    4ace:	00f41463          	bne	s0,a5,4ad6 <__swbuf_r+0xa0>
    4ad2:	4480                	lw	s0,8(s1)
    4ad4:	b769                	j	4a5e <__swbuf_r+0x28>
    4ad6:	00001797          	auipc	a5,0x1
    4ada:	3da78793          	addi	a5,a5,986 # 5eb0 <__sf_fake_stderr>
    4ade:	f8f410e3          	bne	s0,a5,4a5e <__swbuf_r+0x28>
    4ae2:	44c0                	lw	s0,12(s1)
    4ae4:	bfad                	j	4a5e <__swbuf_r+0x28>
    4ae6:	85a2                	mv	a1,s0
    4ae8:	8526                	mv	a0,s1
    4aea:	2021                	jal	4af2 <__swsetup_r>
    4aec:	d141                	beqz	a0,4a6c <__swbuf_r+0x36>
    4aee:	597d                	li	s2,-1
    4af0:	b7d9                	j	4ab6 <__swbuf_r+0x80>

00004af2 <__swsetup_r>:
    4af2:	1141                	addi	sp,sp,-16
    4af4:	81c18793          	addi	a5,gp,-2020 # 200001ac <_impure_ptr>
    4af8:	c226                	sw	s1,4(sp)
    4afa:	4384                	lw	s1,0(a5)
    4afc:	c422                	sw	s0,8(sp)
    4afe:	c04a                	sw	s2,0(sp)
    4b00:	c606                	sw	ra,12(sp)
    4b02:	892a                	mv	s2,a0
    4b04:	842e                	mv	s0,a1
    4b06:	c489                	beqz	s1,4b10 <__swsetup_r+0x1e>
    4b08:	4c9c                	lw	a5,24(s1)
    4b0a:	e399                	bnez	a5,4b10 <__swsetup_r+0x1e>
    4b0c:	8526                	mv	a0,s1
    4b0e:	2635                	jal	4e3a <__sinit>
    4b10:	00001797          	auipc	a5,0x1
    4b14:	3c078793          	addi	a5,a5,960 # 5ed0 <__sf_fake_stdin>
    4b18:	02f41b63          	bne	s0,a5,4b4e <__swsetup_r+0x5c>
    4b1c:	40c0                	lw	s0,4(s1)
    4b1e:	00c41703          	lh	a4,12(s0) # 400000c <_data_lma+0x3ffa0c0>
    4b22:	01071793          	slli	a5,a4,0x10
    4b26:	83c1                	srli	a5,a5,0x10
    4b28:	0087f693          	andi	a3,a5,8
    4b2c:	eaad                	bnez	a3,4b9e <__swsetup_r+0xac>
    4b2e:	0107f693          	andi	a3,a5,16
    4b32:	ee95                	bnez	a3,4b6e <__swsetup_r+0x7c>
    4b34:	47a5                	li	a5,9
    4b36:	00f92023          	sw	a5,0(s2)
    4b3a:	04076713          	ori	a4,a4,64
    4b3e:	a45a                	sh	a4,12(s0)
    4b40:	557d                	li	a0,-1
    4b42:	40b2                	lw	ra,12(sp)
    4b44:	4422                	lw	s0,8(sp)
    4b46:	4492                	lw	s1,4(sp)
    4b48:	4902                	lw	s2,0(sp)
    4b4a:	0141                	addi	sp,sp,16
    4b4c:	8082                	ret
    4b4e:	00001797          	auipc	a5,0x1
    4b52:	3a278793          	addi	a5,a5,930 # 5ef0 <__sf_fake_stdout>
    4b56:	00f41463          	bne	s0,a5,4b5e <__swsetup_r+0x6c>
    4b5a:	4480                	lw	s0,8(s1)
    4b5c:	b7c9                	j	4b1e <__swsetup_r+0x2c>
    4b5e:	00001797          	auipc	a5,0x1
    4b62:	35278793          	addi	a5,a5,850 # 5eb0 <__sf_fake_stderr>
    4b66:	faf41ce3          	bne	s0,a5,4b1e <__swsetup_r+0x2c>
    4b6a:	44c0                	lw	s0,12(s1)
    4b6c:	bf4d                	j	4b1e <__swsetup_r+0x2c>
    4b6e:	8b91                	andi	a5,a5,4
    4b70:	c39d                	beqz	a5,4b96 <__swsetup_r+0xa4>
    4b72:	584c                	lw	a1,52(s0)
    4b74:	c989                	beqz	a1,4b86 <__swsetup_r+0x94>
    4b76:	04440793          	addi	a5,s0,68
    4b7a:	00f58463          	beq	a1,a5,4b82 <__swsetup_r+0x90>
    4b7e:	854a                	mv	a0,s2
    4b80:	2b01                	jal	5090 <_free_r>
    4b82:	02042a23          	sw	zero,52(s0)
    4b86:	245e                	lhu	a5,12(s0)
    4b88:	00042223          	sw	zero,4(s0)
    4b8c:	fdb7f793          	andi	a5,a5,-37
    4b90:	a45e                	sh	a5,12(s0)
    4b92:	481c                	lw	a5,16(s0)
    4b94:	c01c                	sw	a5,0(s0)
    4b96:	245e                	lhu	a5,12(s0)
    4b98:	0087e793          	ori	a5,a5,8
    4b9c:	a45e                	sh	a5,12(s0)
    4b9e:	481c                	lw	a5,16(s0)
    4ba0:	eb99                	bnez	a5,4bb6 <__swsetup_r+0xc4>
    4ba2:	245e                	lhu	a5,12(s0)
    4ba4:	20000713          	li	a4,512
    4ba8:	2807f793          	andi	a5,a5,640
    4bac:	00e78563          	beq	a5,a4,4bb6 <__swsetup_r+0xc4>
    4bb0:	85a2                	mv	a1,s0
    4bb2:	854a                	mv	a0,s2
    4bb4:	21b1                	jal	5000 <__smakebuf_r>
    4bb6:	245e                	lhu	a5,12(s0)
    4bb8:	0017f713          	andi	a4,a5,1
    4bbc:	c31d                	beqz	a4,4be2 <__swsetup_r+0xf0>
    4bbe:	485c                	lw	a5,20(s0)
    4bc0:	00042423          	sw	zero,8(s0)
    4bc4:	40f007b3          	neg	a5,a5
    4bc8:	cc1c                	sw	a5,24(s0)
    4bca:	481c                	lw	a5,16(s0)
    4bcc:	4501                	li	a0,0
    4bce:	fbb5                	bnez	a5,4b42 <__swsetup_r+0x50>
    4bd0:	00c41783          	lh	a5,12(s0)
    4bd4:	0807f713          	andi	a4,a5,128
    4bd8:	d72d                	beqz	a4,4b42 <__swsetup_r+0x50>
    4bda:	0407e793          	ori	a5,a5,64
    4bde:	a45e                	sh	a5,12(s0)
    4be0:	b785                	j	4b40 <__swsetup_r+0x4e>
    4be2:	8b89                	andi	a5,a5,2
    4be4:	4701                	li	a4,0
    4be6:	e391                	bnez	a5,4bea <__swsetup_r+0xf8>
    4be8:	4858                	lw	a4,20(s0)
    4bea:	c418                	sw	a4,8(s0)
    4bec:	bff9                	j	4bca <__swsetup_r+0xd8>

00004bee <__sflush_r>:
    4bee:	25de                	lhu	a5,12(a1)
    4bf0:	1101                	addi	sp,sp,-32
    4bf2:	cc22                	sw	s0,24(sp)
    4bf4:	ca26                	sw	s1,20(sp)
    4bf6:	ce06                	sw	ra,28(sp)
    4bf8:	c84a                	sw	s2,16(sp)
    4bfa:	c64e                	sw	s3,12(sp)
    4bfc:	0087f713          	andi	a4,a5,8
    4c00:	84aa                	mv	s1,a0
    4c02:	842e                	mv	s0,a1
    4c04:	eb79                	bnez	a4,4cda <__sflush_r+0xec>
    4c06:	41d8                	lw	a4,4(a1)
    4c08:	00e04d63          	bgtz	a4,4c22 <__sflush_r+0x34>
    4c0c:	41b8                	lw	a4,64(a1)
    4c0e:	00e04a63          	bgtz	a4,4c22 <__sflush_r+0x34>
    4c12:	4501                	li	a0,0
    4c14:	40f2                	lw	ra,28(sp)
    4c16:	4462                	lw	s0,24(sp)
    4c18:	44d2                	lw	s1,20(sp)
    4c1a:	4942                	lw	s2,16(sp)
    4c1c:	49b2                	lw	s3,12(sp)
    4c1e:	6105                	addi	sp,sp,32
    4c20:	8082                	ret
    4c22:	5458                	lw	a4,44(s0)
    4c24:	d77d                	beqz	a4,4c12 <__sflush_r+0x24>
    4c26:	0004a903          	lw	s2,0(s1)
    4c2a:	01379693          	slli	a3,a5,0x13
    4c2e:	0004a023          	sw	zero,0(s1)
    4c32:	0606db63          	bgez	a3,4ca8 <__sflush_r+0xba>
    4c36:	4870                	lw	a2,84(s0)
    4c38:	245e                	lhu	a5,12(s0)
    4c3a:	8b91                	andi	a5,a5,4
    4c3c:	c799                	beqz	a5,4c4a <__sflush_r+0x5c>
    4c3e:	405c                	lw	a5,4(s0)
    4c40:	8e1d                	sub	a2,a2,a5
    4c42:	585c                	lw	a5,52(s0)
    4c44:	c399                	beqz	a5,4c4a <__sflush_r+0x5c>
    4c46:	403c                	lw	a5,64(s0)
    4c48:	8e1d                	sub	a2,a2,a5
    4c4a:	545c                	lw	a5,44(s0)
    4c4c:	500c                	lw	a1,32(s0)
    4c4e:	4681                	li	a3,0
    4c50:	8526                	mv	a0,s1
    4c52:	9782                	jalr	a5
    4c54:	57fd                	li	a5,-1
    4c56:	245a                	lhu	a4,12(s0)
    4c58:	00f51d63          	bne	a0,a5,4c72 <__sflush_r+0x84>
    4c5c:	4094                	lw	a3,0(s1)
    4c5e:	47f5                	li	a5,29
    4c60:	06d7e863          	bltu	a5,a3,4cd0 <__sflush_r+0xe2>
    4c64:	204007b7          	lui	a5,0x20400
    4c68:	0785                	addi	a5,a5,1
    4c6a:	00d7d7b3          	srl	a5,a5,a3
    4c6e:	8b85                	andi	a5,a5,1
    4c70:	c3a5                	beqz	a5,4cd0 <__sflush_r+0xe2>
    4c72:	481c                	lw	a5,16(s0)
    4c74:	00042223          	sw	zero,4(s0)
    4c78:	c01c                	sw	a5,0(s0)
    4c7a:	01371793          	slli	a5,a4,0x13
    4c7e:	0007d863          	bgez	a5,4c8e <__sflush_r+0xa0>
    4c82:	57fd                	li	a5,-1
    4c84:	00f51463          	bne	a0,a5,4c8c <__sflush_r+0x9e>
    4c88:	409c                	lw	a5,0(s1)
    4c8a:	e391                	bnez	a5,4c8e <__sflush_r+0xa0>
    4c8c:	c868                	sw	a0,84(s0)
    4c8e:	584c                	lw	a1,52(s0)
    4c90:	0124a023          	sw	s2,0(s1)
    4c94:	ddbd                	beqz	a1,4c12 <__sflush_r+0x24>
    4c96:	04440793          	addi	a5,s0,68
    4c9a:	00f58463          	beq	a1,a5,4ca2 <__sflush_r+0xb4>
    4c9e:	8526                	mv	a0,s1
    4ca0:	2ec5                	jal	5090 <_free_r>
    4ca2:	02042a23          	sw	zero,52(s0)
    4ca6:	b7b5                	j	4c12 <__sflush_r+0x24>
    4ca8:	500c                	lw	a1,32(s0)
    4caa:	4601                	li	a2,0
    4cac:	4685                	li	a3,1
    4cae:	8526                	mv	a0,s1
    4cb0:	9702                	jalr	a4
    4cb2:	57fd                	li	a5,-1
    4cb4:	862a                	mv	a2,a0
    4cb6:	f8f511e3          	bne	a0,a5,4c38 <__sflush_r+0x4a>
    4cba:	409c                	lw	a5,0(s1)
    4cbc:	dfb5                	beqz	a5,4c38 <__sflush_r+0x4a>
    4cbe:	4775                	li	a4,29
    4cc0:	00e78563          	beq	a5,a4,4cca <__sflush_r+0xdc>
    4cc4:	4759                	li	a4,22
    4cc6:	04e79363          	bne	a5,a4,4d0c <__sflush_r+0x11e>
    4cca:	0124a023          	sw	s2,0(s1)
    4cce:	b791                	j	4c12 <__sflush_r+0x24>
    4cd0:	04076713          	ori	a4,a4,64
    4cd4:	a45a                	sh	a4,12(s0)
    4cd6:	557d                	li	a0,-1
    4cd8:	bf35                	j	4c14 <__sflush_r+0x26>
    4cda:	0105a983          	lw	s3,16(a1)
    4cde:	f2098ae3          	beqz	s3,4c12 <__sflush_r+0x24>
    4ce2:	0005a903          	lw	s2,0(a1)
    4ce6:	8b8d                	andi	a5,a5,3
    4ce8:	0135a023          	sw	s3,0(a1)
    4cec:	41390933          	sub	s2,s2,s3
    4cf0:	4701                	li	a4,0
    4cf2:	e391                	bnez	a5,4cf6 <__sflush_r+0x108>
    4cf4:	49d8                	lw	a4,20(a1)
    4cf6:	c418                	sw	a4,8(s0)
    4cf8:	f1205de3          	blez	s2,4c12 <__sflush_r+0x24>
    4cfc:	541c                	lw	a5,40(s0)
    4cfe:	500c                	lw	a1,32(s0)
    4d00:	86ca                	mv	a3,s2
    4d02:	864e                	mv	a2,s3
    4d04:	8526                	mv	a0,s1
    4d06:	9782                	jalr	a5
    4d08:	00a04763          	bgtz	a0,4d16 <__sflush_r+0x128>
    4d0c:	245e                	lhu	a5,12(s0)
    4d0e:	0407e793          	ori	a5,a5,64
    4d12:	a45e                	sh	a5,12(s0)
    4d14:	b7c9                	j	4cd6 <__sflush_r+0xe8>
    4d16:	99aa                	add	s3,s3,a0
    4d18:	40a90933          	sub	s2,s2,a0
    4d1c:	bff1                	j	4cf8 <__sflush_r+0x10a>

00004d1e <_fflush_r>:
    4d1e:	499c                	lw	a5,16(a1)
    4d20:	c3a5                	beqz	a5,4d80 <_fflush_r+0x62>
    4d22:	1101                	addi	sp,sp,-32
    4d24:	cc22                	sw	s0,24(sp)
    4d26:	ce06                	sw	ra,28(sp)
    4d28:	842a                	mv	s0,a0
    4d2a:	c511                	beqz	a0,4d36 <_fflush_r+0x18>
    4d2c:	4d1c                	lw	a5,24(a0)
    4d2e:	e781                	bnez	a5,4d36 <_fflush_r+0x18>
    4d30:	c62e                	sw	a1,12(sp)
    4d32:	2221                	jal	4e3a <__sinit>
    4d34:	45b2                	lw	a1,12(sp)
    4d36:	00001797          	auipc	a5,0x1
    4d3a:	19a78793          	addi	a5,a5,410 # 5ed0 <__sf_fake_stdin>
    4d3e:	00f59c63          	bne	a1,a5,4d56 <_fflush_r+0x38>
    4d42:	404c                	lw	a1,4(s0)
    4d44:	00c59783          	lh	a5,12(a1)
    4d48:	c79d                	beqz	a5,4d76 <_fflush_r+0x58>
    4d4a:	8522                	mv	a0,s0
    4d4c:	4462                	lw	s0,24(sp)
    4d4e:	40f2                	lw	ra,28(sp)
    4d50:	6105                	addi	sp,sp,32
    4d52:	e9dff06f          	j	4bee <__sflush_r>
    4d56:	00001797          	auipc	a5,0x1
    4d5a:	19a78793          	addi	a5,a5,410 # 5ef0 <__sf_fake_stdout>
    4d5e:	00f59463          	bne	a1,a5,4d66 <_fflush_r+0x48>
    4d62:	440c                	lw	a1,8(s0)
    4d64:	b7c5                	j	4d44 <_fflush_r+0x26>
    4d66:	00001797          	auipc	a5,0x1
    4d6a:	14a78793          	addi	a5,a5,330 # 5eb0 <__sf_fake_stderr>
    4d6e:	fcf59be3          	bne	a1,a5,4d44 <_fflush_r+0x26>
    4d72:	444c                	lw	a1,12(s0)
    4d74:	bfc1                	j	4d44 <_fflush_r+0x26>
    4d76:	40f2                	lw	ra,28(sp)
    4d78:	4462                	lw	s0,24(sp)
    4d7a:	4501                	li	a0,0
    4d7c:	6105                	addi	sp,sp,32
    4d7e:	8082                	ret
    4d80:	4501                	li	a0,0
    4d82:	8082                	ret

00004d84 <std>:
    4d84:	1141                	addi	sp,sp,-16
    4d86:	c422                	sw	s0,8(sp)
    4d88:	c606                	sw	ra,12(sp)
    4d8a:	842a                	mv	s0,a0
    4d8c:	a54e                	sh	a1,12(a0)
    4d8e:	a572                	sh	a2,14(a0)
    4d90:	00052023          	sw	zero,0(a0)
    4d94:	00052223          	sw	zero,4(a0)
    4d98:	00052423          	sw	zero,8(a0)
    4d9c:	06052223          	sw	zero,100(a0)
    4da0:	00052823          	sw	zero,16(a0)
    4da4:	00052a23          	sw	zero,20(a0)
    4da8:	00052c23          	sw	zero,24(a0)
    4dac:	4621                	li	a2,8
    4dae:	4581                	li	a1,0
    4db0:	05c50513          	addi	a0,a0,92
    4db4:	bacfb0ef          	jal	ra,160 <memset>
    4db8:	00001797          	auipc	a5,0x1
    4dbc:	b1a78793          	addi	a5,a5,-1254 # 58d2 <__sread>
    4dc0:	d05c                	sw	a5,36(s0)
    4dc2:	00001797          	auipc	a5,0x1
    4dc6:	b3c78793          	addi	a5,a5,-1220 # 58fe <__swrite>
    4dca:	d41c                	sw	a5,40(s0)
    4dcc:	00001797          	auipc	a5,0x1
    4dd0:	b7a78793          	addi	a5,a5,-1158 # 5946 <__sseek>
    4dd4:	d45c                	sw	a5,44(s0)
    4dd6:	00001797          	auipc	a5,0x1
    4dda:	ba078793          	addi	a5,a5,-1120 # 5976 <__sclose>
    4dde:	d000                	sw	s0,32(s0)
    4de0:	d81c                	sw	a5,48(s0)
    4de2:	40b2                	lw	ra,12(sp)
    4de4:	4422                	lw	s0,8(sp)
    4de6:	0141                	addi	sp,sp,16
    4de8:	8082                	ret

00004dea <_cleanup_r>:
    4dea:	00000597          	auipc	a1,0x0
    4dee:	f3458593          	addi	a1,a1,-204 # 4d1e <_fflush_r>
    4df2:	a2b1                	j	4f3e <_fwalk_reent>

00004df4 <__sfmoreglue>:
    4df4:	1141                	addi	sp,sp,-16
    4df6:	c226                	sw	s1,4(sp)
    4df8:	06800613          	li	a2,104
    4dfc:	fff58493          	addi	s1,a1,-1
    4e00:	02c484b3          	mul	s1,s1,a2
    4e04:	c04a                	sw	s2,0(sp)
    4e06:	892e                	mv	s2,a1
    4e08:	c422                	sw	s0,8(sp)
    4e0a:	c606                	sw	ra,12(sp)
    4e0c:	07448593          	addi	a1,s1,116
    4e10:	2625                	jal	5138 <_malloc_r>
    4e12:	842a                	mv	s0,a0
    4e14:	cd01                	beqz	a0,4e2c <__sfmoreglue+0x38>
    4e16:	00052023          	sw	zero,0(a0)
    4e1a:	01252223          	sw	s2,4(a0)
    4e1e:	0531                	addi	a0,a0,12
    4e20:	c408                	sw	a0,8(s0)
    4e22:	06848613          	addi	a2,s1,104
    4e26:	4581                	li	a1,0
    4e28:	b38fb0ef          	jal	ra,160 <memset>
    4e2c:	8522                	mv	a0,s0
    4e2e:	40b2                	lw	ra,12(sp)
    4e30:	4422                	lw	s0,8(sp)
    4e32:	4492                	lw	s1,4(sp)
    4e34:	4902                	lw	s2,0(sp)
    4e36:	0141                	addi	sp,sp,16
    4e38:	8082                	ret

00004e3a <__sinit>:
    4e3a:	4d1c                	lw	a5,24(a0)
    4e3c:	e3ad                	bnez	a5,4e9e <__sinit+0x64>
    4e3e:	1141                	addi	sp,sp,-16
    4e40:	c606                	sw	ra,12(sp)
    4e42:	c422                	sw	s0,8(sp)
    4e44:	00000797          	auipc	a5,0x0
    4e48:	fa678793          	addi	a5,a5,-90 # 4dea <_cleanup_r>
    4e4c:	d51c                	sw	a5,40(a0)
    4e4e:	82018793          	addi	a5,gp,-2016 # 200001b0 <_global_impure_ptr>
    4e52:	439c                	lw	a5,0(a5)
    4e54:	04052423          	sw	zero,72(a0)
    4e58:	04052623          	sw	zero,76(a0)
    4e5c:	04052823          	sw	zero,80(a0)
    4e60:	00f51463          	bne	a0,a5,4e68 <__sinit+0x2e>
    4e64:	4785                	li	a5,1
    4e66:	cd1c                	sw	a5,24(a0)
    4e68:	842a                	mv	s0,a0
    4e6a:	281d                	jal	4ea0 <__sfp>
    4e6c:	c048                	sw	a0,4(s0)
    4e6e:	8522                	mv	a0,s0
    4e70:	2805                	jal	4ea0 <__sfp>
    4e72:	c408                	sw	a0,8(s0)
    4e74:	8522                	mv	a0,s0
    4e76:	202d                	jal	4ea0 <__sfp>
    4e78:	c448                	sw	a0,12(s0)
    4e7a:	4048                	lw	a0,4(s0)
    4e7c:	4601                	li	a2,0
    4e7e:	4591                	li	a1,4
    4e80:	3711                	jal	4d84 <std>
    4e82:	4408                	lw	a0,8(s0)
    4e84:	4605                	li	a2,1
    4e86:	45a5                	li	a1,9
    4e88:	3df5                	jal	4d84 <std>
    4e8a:	4448                	lw	a0,12(s0)
    4e8c:	4609                	li	a2,2
    4e8e:	45c9                	li	a1,18
    4e90:	3dd5                	jal	4d84 <std>
    4e92:	4785                	li	a5,1
    4e94:	cc1c                	sw	a5,24(s0)
    4e96:	40b2                	lw	ra,12(sp)
    4e98:	4422                	lw	s0,8(sp)
    4e9a:	0141                	addi	sp,sp,16
    4e9c:	8082                	ret
    4e9e:	8082                	ret

00004ea0 <__sfp>:
    4ea0:	1141                	addi	sp,sp,-16
    4ea2:	82018793          	addi	a5,gp,-2016 # 200001b0 <_global_impure_ptr>
    4ea6:	c226                	sw	s1,4(sp)
    4ea8:	4384                	lw	s1,0(a5)
    4eaa:	c04a                	sw	s2,0(sp)
    4eac:	c606                	sw	ra,12(sp)
    4eae:	4c9c                	lw	a5,24(s1)
    4eb0:	c422                	sw	s0,8(sp)
    4eb2:	892a                	mv	s2,a0
    4eb4:	e399                	bnez	a5,4eba <__sfp+0x1a>
    4eb6:	8526                	mv	a0,s1
    4eb8:	3749                	jal	4e3a <__sinit>
    4eba:	04848493          	addi	s1,s1,72
    4ebe:	4480                	lw	s0,8(s1)
    4ec0:	40dc                	lw	a5,4(s1)
    4ec2:	17fd                	addi	a5,a5,-1
    4ec4:	0007d663          	bgez	a5,4ed0 <__sfp+0x30>
    4ec8:	409c                	lw	a5,0(s1)
    4eca:	cfb9                	beqz	a5,4f28 <__sfp+0x88>
    4ecc:	4084                	lw	s1,0(s1)
    4ece:	bfc5                	j	4ebe <__sfp+0x1e>
    4ed0:	00c41703          	lh	a4,12(s0)
    4ed4:	e739                	bnez	a4,4f22 <__sfp+0x82>
    4ed6:	77c1                	lui	a5,0xffff0
    4ed8:	0785                	addi	a5,a5,1
    4eda:	06042223          	sw	zero,100(s0)
    4ede:	00042023          	sw	zero,0(s0)
    4ee2:	00042223          	sw	zero,4(s0)
    4ee6:	00042423          	sw	zero,8(s0)
    4eea:	c45c                	sw	a5,12(s0)
    4eec:	00042823          	sw	zero,16(s0)
    4ef0:	00042a23          	sw	zero,20(s0)
    4ef4:	00042c23          	sw	zero,24(s0)
    4ef8:	4621                	li	a2,8
    4efa:	4581                	li	a1,0
    4efc:	05c40513          	addi	a0,s0,92
    4f00:	a60fb0ef          	jal	ra,160 <memset>
    4f04:	02042a23          	sw	zero,52(s0)
    4f08:	02042c23          	sw	zero,56(s0)
    4f0c:	04042423          	sw	zero,72(s0)
    4f10:	04042623          	sw	zero,76(s0)
    4f14:	8522                	mv	a0,s0
    4f16:	40b2                	lw	ra,12(sp)
    4f18:	4422                	lw	s0,8(sp)
    4f1a:	4492                	lw	s1,4(sp)
    4f1c:	4902                	lw	s2,0(sp)
    4f1e:	0141                	addi	sp,sp,16
    4f20:	8082                	ret
    4f22:	06840413          	addi	s0,s0,104
    4f26:	bf71                	j	4ec2 <__sfp+0x22>
    4f28:	4591                	li	a1,4
    4f2a:	854a                	mv	a0,s2
    4f2c:	ec9ff0ef          	jal	ra,4df4 <__sfmoreglue>
    4f30:	c088                	sw	a0,0(s1)
    4f32:	fd49                	bnez	a0,4ecc <__sfp+0x2c>
    4f34:	47b1                	li	a5,12
    4f36:	00f92023          	sw	a5,0(s2)
    4f3a:	4401                	li	s0,0
    4f3c:	bfe1                	j	4f14 <__sfp+0x74>

00004f3e <_fwalk_reent>:
    4f3e:	7179                	addi	sp,sp,-48
    4f40:	d422                	sw	s0,40(sp)
    4f42:	d04a                	sw	s2,32(sp)
    4f44:	cc52                	sw	s4,24(sp)
    4f46:	ca56                	sw	s5,20(sp)
    4f48:	c85a                	sw	s6,16(sp)
    4f4a:	c65e                	sw	s7,12(sp)
    4f4c:	d606                	sw	ra,44(sp)
    4f4e:	d226                	sw	s1,36(sp)
    4f50:	ce4e                	sw	s3,28(sp)
    4f52:	8a2a                	mv	s4,a0
    4f54:	8aae                	mv	s5,a1
    4f56:	04850413          	addi	s0,a0,72
    4f5a:	4901                	li	s2,0
    4f5c:	4b05                	li	s6,1
    4f5e:	5bfd                	li	s7,-1
    4f60:	ec09                	bnez	s0,4f7a <_fwalk_reent+0x3c>
    4f62:	50b2                	lw	ra,44(sp)
    4f64:	5422                	lw	s0,40(sp)
    4f66:	854a                	mv	a0,s2
    4f68:	5492                	lw	s1,36(sp)
    4f6a:	5902                	lw	s2,32(sp)
    4f6c:	49f2                	lw	s3,28(sp)
    4f6e:	4a62                	lw	s4,24(sp)
    4f70:	4ad2                	lw	s5,20(sp)
    4f72:	4b42                	lw	s6,16(sp)
    4f74:	4bb2                	lw	s7,12(sp)
    4f76:	6145                	addi	sp,sp,48
    4f78:	8082                	ret
    4f7a:	4404                	lw	s1,8(s0)
    4f7c:	00442983          	lw	s3,4(s0)
    4f80:	19fd                	addi	s3,s3,-1
    4f82:	0009d463          	bgez	s3,4f8a <_fwalk_reent+0x4c>
    4f86:	4000                	lw	s0,0(s0)
    4f88:	bfe1                	j	4f60 <_fwalk_reent+0x22>
    4f8a:	24de                	lhu	a5,12(s1)
    4f8c:	00fb7b63          	bgeu	s6,a5,4fa2 <_fwalk_reent+0x64>
    4f90:	00e49783          	lh	a5,14(s1)
    4f94:	01778763          	beq	a5,s7,4fa2 <_fwalk_reent+0x64>
    4f98:	85a6                	mv	a1,s1
    4f9a:	8552                	mv	a0,s4
    4f9c:	9a82                	jalr	s5
    4f9e:	00a96933          	or	s2,s2,a0
    4fa2:	06848493          	addi	s1,s1,104
    4fa6:	bfe9                	j	4f80 <_fwalk_reent+0x42>

00004fa8 <__swhatbuf_r>:
    4fa8:	7119                	addi	sp,sp,-128
    4faa:	daa6                	sw	s1,116(sp)
    4fac:	84ae                	mv	s1,a1
    4fae:	00e59583          	lh	a1,14(a1)
    4fb2:	dca2                	sw	s0,120(sp)
    4fb4:	de86                	sw	ra,124(sp)
    4fb6:	8432                	mv	s0,a2
    4fb8:	0005db63          	bgez	a1,4fce <__swhatbuf_r+0x26>
    4fbc:	24de                	lhu	a5,12(s1)
    4fbe:	0006a023          	sw	zero,0(a3)
    4fc2:	0807f793          	andi	a5,a5,128
    4fc6:	e785                	bnez	a5,4fee <__swhatbuf_r+0x46>
    4fc8:	40000793          	li	a5,1024
    4fcc:	a01d                	j	4ff2 <__swhatbuf_r+0x4a>
    4fce:	0830                	addi	a2,sp,24
    4fd0:	c636                	sw	a3,12(sp)
    4fd2:	201000ef          	jal	ra,59d2 <_fstat_r>
    4fd6:	46b2                	lw	a3,12(sp)
    4fd8:	fe0542e3          	bltz	a0,4fbc <__swhatbuf_r+0x14>
    4fdc:	4772                	lw	a4,28(sp)
    4fde:	67bd                	lui	a5,0xf
    4fe0:	8ff9                	and	a5,a5,a4
    4fe2:	7779                	lui	a4,0xffffe
    4fe4:	97ba                	add	a5,a5,a4
    4fe6:	0017b793          	seqz	a5,a5
    4fea:	c29c                	sw	a5,0(a3)
    4fec:	bff1                	j	4fc8 <__swhatbuf_r+0x20>
    4fee:	04000793          	li	a5,64
    4ff2:	c01c                	sw	a5,0(s0)
    4ff4:	50f6                	lw	ra,124(sp)
    4ff6:	5466                	lw	s0,120(sp)
    4ff8:	54d6                	lw	s1,116(sp)
    4ffa:	4501                	li	a0,0
    4ffc:	6109                	addi	sp,sp,128
    4ffe:	8082                	ret

00005000 <__smakebuf_r>:
    5000:	25de                	lhu	a5,12(a1)
    5002:	1101                	addi	sp,sp,-32
    5004:	cc22                	sw	s0,24(sp)
    5006:	ce06                	sw	ra,28(sp)
    5008:	ca26                	sw	s1,20(sp)
    500a:	c84a                	sw	s2,16(sp)
    500c:	8b89                	andi	a5,a5,2
    500e:	842e                	mv	s0,a1
    5010:	cf89                	beqz	a5,502a <__smakebuf_r+0x2a>
    5012:	04740793          	addi	a5,s0,71
    5016:	c01c                	sw	a5,0(s0)
    5018:	c81c                	sw	a5,16(s0)
    501a:	4785                	li	a5,1
    501c:	c85c                	sw	a5,20(s0)
    501e:	40f2                	lw	ra,28(sp)
    5020:	4462                	lw	s0,24(sp)
    5022:	44d2                	lw	s1,20(sp)
    5024:	4942                	lw	s2,16(sp)
    5026:	6105                	addi	sp,sp,32
    5028:	8082                	ret
    502a:	0074                	addi	a3,sp,12
    502c:	0030                	addi	a2,sp,8
    502e:	84aa                	mv	s1,a0
    5030:	3fa5                	jal	4fa8 <__swhatbuf_r>
    5032:	45a2                	lw	a1,8(sp)
    5034:	892a                	mv	s2,a0
    5036:	8526                	mv	a0,s1
    5038:	2201                	jal	5138 <_malloc_r>
    503a:	e919                	bnez	a0,5050 <__smakebuf_r+0x50>
    503c:	00c41783          	lh	a5,12(s0)
    5040:	2007f713          	andi	a4,a5,512
    5044:	ff69                	bnez	a4,501e <__smakebuf_r+0x1e>
    5046:	9bf1                	andi	a5,a5,-4
    5048:	0027e793          	ori	a5,a5,2
    504c:	a45e                	sh	a5,12(s0)
    504e:	b7d1                	j	5012 <__smakebuf_r+0x12>
    5050:	00000797          	auipc	a5,0x0
    5054:	d9a78793          	addi	a5,a5,-614 # 4dea <_cleanup_r>
    5058:	d49c                	sw	a5,40(s1)
    505a:	245e                	lhu	a5,12(s0)
    505c:	c008                	sw	a0,0(s0)
    505e:	c808                	sw	a0,16(s0)
    5060:	0807e793          	ori	a5,a5,128
    5064:	a45e                	sh	a5,12(s0)
    5066:	47a2                	lw	a5,8(sp)
    5068:	c85c                	sw	a5,20(s0)
    506a:	47b2                	lw	a5,12(sp)
    506c:	cf81                	beqz	a5,5084 <__smakebuf_r+0x84>
    506e:	00e41583          	lh	a1,14(s0)
    5072:	8526                	mv	a0,s1
    5074:	189000ef          	jal	ra,59fc <_isatty_r>
    5078:	c511                	beqz	a0,5084 <__smakebuf_r+0x84>
    507a:	245e                	lhu	a5,12(s0)
    507c:	9bf1                	andi	a5,a5,-4
    507e:	0017e793          	ori	a5,a5,1
    5082:	a45e                	sh	a5,12(s0)
    5084:	245e                	lhu	a5,12(s0)
    5086:	00f96933          	or	s2,s2,a5
    508a:	01241623          	sh	s2,12(s0)
    508e:	bf41                	j	501e <__smakebuf_r+0x1e>

00005090 <_free_r>:
    5090:	c1dd                	beqz	a1,5136 <_free_r+0xa6>
    5092:	ffc5a783          	lw	a5,-4(a1)
    5096:	1141                	addi	sp,sp,-16
    5098:	c422                	sw	s0,8(sp)
    509a:	c606                	sw	ra,12(sp)
    509c:	c226                	sw	s1,4(sp)
    509e:	ffc58413          	addi	s0,a1,-4
    50a2:	0007d363          	bgez	a5,50a8 <_free_r+0x18>
    50a6:	943e                	add	s0,s0,a5
    50a8:	84aa                	mv	s1,a0
    50aa:	1bf000ef          	jal	ra,5a68 <__malloc_lock>
    50ae:	83018793          	addi	a5,gp,-2000 # 200001c0 <__malloc_free_list>
    50b2:	439c                	lw	a5,0(a5)
    50b4:	ef81                	bnez	a5,50cc <_free_r+0x3c>
    50b6:	00042223          	sw	zero,4(s0)
    50ba:	8281a823          	sw	s0,-2000(gp) # 200001c0 <__malloc_free_list>
    50be:	4422                	lw	s0,8(sp)
    50c0:	40b2                	lw	ra,12(sp)
    50c2:	8526                	mv	a0,s1
    50c4:	4492                	lw	s1,4(sp)
    50c6:	0141                	addi	sp,sp,16
    50c8:	1a30006f          	j	5a6a <__malloc_unlock>
    50cc:	00f47e63          	bgeu	s0,a5,50e8 <_free_r+0x58>
    50d0:	4014                	lw	a3,0(s0)
    50d2:	00d40733          	add	a4,s0,a3
    50d6:	00e79663          	bne	a5,a4,50e2 <_free_r+0x52>
    50da:	4398                	lw	a4,0(a5)
    50dc:	43dc                	lw	a5,4(a5)
    50de:	9736                	add	a4,a4,a3
    50e0:	c018                	sw	a4,0(s0)
    50e2:	c05c                	sw	a5,4(s0)
    50e4:	bfd9                	j	50ba <_free_r+0x2a>
    50e6:	87ba                	mv	a5,a4
    50e8:	43d8                	lw	a4,4(a5)
    50ea:	c319                	beqz	a4,50f0 <_free_r+0x60>
    50ec:	fee47de3          	bgeu	s0,a4,50e6 <_free_r+0x56>
    50f0:	4394                	lw	a3,0(a5)
    50f2:	00d78633          	add	a2,a5,a3
    50f6:	00861f63          	bne	a2,s0,5114 <_free_r+0x84>
    50fa:	4010                	lw	a2,0(s0)
    50fc:	96b2                	add	a3,a3,a2
    50fe:	c394                	sw	a3,0(a5)
    5100:	00d78633          	add	a2,a5,a3
    5104:	fac71de3          	bne	a4,a2,50be <_free_r+0x2e>
    5108:	4310                	lw	a2,0(a4)
    510a:	4358                	lw	a4,4(a4)
    510c:	96b2                	add	a3,a3,a2
    510e:	c394                	sw	a3,0(a5)
    5110:	c3d8                	sw	a4,4(a5)
    5112:	b775                	j	50be <_free_r+0x2e>
    5114:	00c47563          	bgeu	s0,a2,511e <_free_r+0x8e>
    5118:	47b1                	li	a5,12
    511a:	c09c                	sw	a5,0(s1)
    511c:	b74d                	j	50be <_free_r+0x2e>
    511e:	4010                	lw	a2,0(s0)
    5120:	00c406b3          	add	a3,s0,a2
    5124:	00d71663          	bne	a4,a3,5130 <_free_r+0xa0>
    5128:	4314                	lw	a3,0(a4)
    512a:	4358                	lw	a4,4(a4)
    512c:	96b2                	add	a3,a3,a2
    512e:	c014                	sw	a3,0(s0)
    5130:	c058                	sw	a4,4(s0)
    5132:	c3c0                	sw	s0,4(a5)
    5134:	b769                	j	50be <_free_r+0x2e>
    5136:	8082                	ret

00005138 <_malloc_r>:
    5138:	1101                	addi	sp,sp,-32
    513a:	ca26                	sw	s1,20(sp)
    513c:	00358493          	addi	s1,a1,3
    5140:	98f1                	andi	s1,s1,-4
    5142:	ce06                	sw	ra,28(sp)
    5144:	cc22                	sw	s0,24(sp)
    5146:	c84a                	sw	s2,16(sp)
    5148:	c64e                	sw	s3,12(sp)
    514a:	04a1                	addi	s1,s1,8
    514c:	47b1                	li	a5,12
    514e:	04f4f363          	bgeu	s1,a5,5194 <_malloc_r+0x5c>
    5152:	44b1                	li	s1,12
    5154:	04b4e263          	bltu	s1,a1,5198 <_malloc_r+0x60>
    5158:	892a                	mv	s2,a0
    515a:	10f000ef          	jal	ra,5a68 <__malloc_lock>
    515e:	83018793          	addi	a5,gp,-2000 # 200001c0 <__malloc_free_list>
    5162:	4398                	lw	a4,0(a5)
    5164:	843a                	mv	s0,a4
    5166:	e039                	bnez	s0,51ac <_malloc_r+0x74>
    5168:	83418793          	addi	a5,gp,-1996 # 200001c4 <__malloc_sbrk_start>
    516c:	439c                	lw	a5,0(a5)
    516e:	e791                	bnez	a5,517a <_malloc_r+0x42>
    5170:	4581                	li	a1,0
    5172:	854a                	mv	a0,s2
    5174:	2f15                	jal	58a8 <_sbrk_r>
    5176:	82a1aa23          	sw	a0,-1996(gp) # 200001c4 <__malloc_sbrk_start>
    517a:	85a6                	mv	a1,s1
    517c:	854a                	mv	a0,s2
    517e:	272d                	jal	58a8 <_sbrk_r>
    5180:	59fd                	li	s3,-1
    5182:	07351963          	bne	a0,s3,51f4 <_malloc_r+0xbc>
    5186:	47b1                	li	a5,12
    5188:	00f92023          	sw	a5,0(s2)
    518c:	854a                	mv	a0,s2
    518e:	0dd000ef          	jal	ra,5a6a <__malloc_unlock>
    5192:	a029                	j	519c <_malloc_r+0x64>
    5194:	fc04d0e3          	bgez	s1,5154 <_malloc_r+0x1c>
    5198:	47b1                	li	a5,12
    519a:	c11c                	sw	a5,0(a0)
    519c:	4501                	li	a0,0
    519e:	40f2                	lw	ra,28(sp)
    51a0:	4462                	lw	s0,24(sp)
    51a2:	44d2                	lw	s1,20(sp)
    51a4:	4942                	lw	s2,16(sp)
    51a6:	49b2                	lw	s3,12(sp)
    51a8:	6105                	addi	sp,sp,32
    51aa:	8082                	ret
    51ac:	401c                	lw	a5,0(s0)
    51ae:	8f85                	sub	a5,a5,s1
    51b0:	0207cf63          	bltz	a5,51ee <_malloc_r+0xb6>
    51b4:	46ad                	li	a3,11
    51b6:	00f6f663          	bgeu	a3,a5,51c2 <_malloc_r+0x8a>
    51ba:	c01c                	sw	a5,0(s0)
    51bc:	943e                	add	s0,s0,a5
    51be:	c004                	sw	s1,0(s0)
    51c0:	a031                	j	51cc <_malloc_r+0x94>
    51c2:	405c                	lw	a5,4(s0)
    51c4:	02871363          	bne	a4,s0,51ea <_malloc_r+0xb2>
    51c8:	82f1a823          	sw	a5,-2000(gp) # 200001c0 <__malloc_free_list>
    51cc:	854a                	mv	a0,s2
    51ce:	09d000ef          	jal	ra,5a6a <__malloc_unlock>
    51d2:	00b40513          	addi	a0,s0,11
    51d6:	00440793          	addi	a5,s0,4
    51da:	9961                	andi	a0,a0,-8
    51dc:	40f50733          	sub	a4,a0,a5
    51e0:	df5d                	beqz	a4,519e <_malloc_r+0x66>
    51e2:	943a                	add	s0,s0,a4
    51e4:	8f89                	sub	a5,a5,a0
    51e6:	c01c                	sw	a5,0(s0)
    51e8:	bf5d                	j	519e <_malloc_r+0x66>
    51ea:	c35c                	sw	a5,4(a4)
    51ec:	b7c5                	j	51cc <_malloc_r+0x94>
    51ee:	8722                	mv	a4,s0
    51f0:	4040                	lw	s0,4(s0)
    51f2:	bf95                	j	5166 <_malloc_r+0x2e>
    51f4:	00350413          	addi	s0,a0,3
    51f8:	9871                	andi	s0,s0,-4
    51fa:	fc8502e3          	beq	a0,s0,51be <_malloc_r+0x86>
    51fe:	40a405b3          	sub	a1,s0,a0
    5202:	854a                	mv	a0,s2
    5204:	2555                	jal	58a8 <_sbrk_r>
    5206:	fb351ce3          	bne	a0,s3,51be <_malloc_r+0x86>
    520a:	bfb5                	j	5186 <_malloc_r+0x4e>

0000520c <__sfputc_r>:
    520c:	461c                	lw	a5,8(a2)
    520e:	17fd                	addi	a5,a5,-1
    5210:	c61c                	sw	a5,8(a2)
    5212:	0007da63          	bgez	a5,5226 <__sfputc_r+0x1a>
    5216:	4e18                	lw	a4,24(a2)
    5218:	00e7c563          	blt	a5,a4,5222 <__sfputc_r+0x16>
    521c:	47a9                	li	a5,10
    521e:	00f59463          	bne	a1,a5,5226 <__sfputc_r+0x1a>
    5222:	815ff06f          	j	4a36 <__swbuf_r>
    5226:	421c                	lw	a5,0(a2)
    5228:	852e                	mv	a0,a1
    522a:	00178713          	addi	a4,a5,1
    522e:	c218                	sw	a4,0(a2)
    5230:	a38c                	sb	a1,0(a5)
    5232:	8082                	ret

00005234 <__sfputs_r>:
    5234:	1101                	addi	sp,sp,-32
    5236:	cc22                	sw	s0,24(sp)
    5238:	ca26                	sw	s1,20(sp)
    523a:	c84a                	sw	s2,16(sp)
    523c:	c64e                	sw	s3,12(sp)
    523e:	c452                	sw	s4,8(sp)
    5240:	ce06                	sw	ra,28(sp)
    5242:	892a                	mv	s2,a0
    5244:	89ae                	mv	s3,a1
    5246:	8432                	mv	s0,a2
    5248:	00d604b3          	add	s1,a2,a3
    524c:	5a7d                	li	s4,-1
    524e:	00941463          	bne	s0,s1,5256 <__sfputs_r+0x22>
    5252:	4501                	li	a0,0
    5254:	a801                	j	5264 <__sfputs_r+0x30>
    5256:	200c                	lbu	a1,0(s0)
    5258:	864e                	mv	a2,s3
    525a:	854a                	mv	a0,s2
    525c:	3f45                	jal	520c <__sfputc_r>
    525e:	0405                	addi	s0,s0,1
    5260:	ff4517e3          	bne	a0,s4,524e <__sfputs_r+0x1a>
    5264:	40f2                	lw	ra,28(sp)
    5266:	4462                	lw	s0,24(sp)
    5268:	44d2                	lw	s1,20(sp)
    526a:	4942                	lw	s2,16(sp)
    526c:	49b2                	lw	s3,12(sp)
    526e:	4a22                	lw	s4,8(sp)
    5270:	6105                	addi	sp,sp,32
    5272:	8082                	ret

00005274 <_vfiprintf_r>:
    5274:	7135                	addi	sp,sp,-160
    5276:	cd22                	sw	s0,152(sp)
    5278:	cb26                	sw	s1,148(sp)
    527a:	c94a                	sw	s2,144(sp)
    527c:	c74e                	sw	s3,140(sp)
    527e:	cf06                	sw	ra,156(sp)
    5280:	c552                	sw	s4,136(sp)
    5282:	c356                	sw	s5,132(sp)
    5284:	c15a                	sw	s6,128(sp)
    5286:	dede                	sw	s7,124(sp)
    5288:	dce2                	sw	s8,120(sp)
    528a:	dae6                	sw	s9,116(sp)
    528c:	89aa                	mv	s3,a0
    528e:	84ae                	mv	s1,a1
    5290:	8932                	mv	s2,a2
    5292:	8436                	mv	s0,a3
    5294:	c509                	beqz	a0,529e <_vfiprintf_r+0x2a>
    5296:	4d1c                	lw	a5,24(a0)
    5298:	e399                	bnez	a5,529e <_vfiprintf_r+0x2a>
    529a:	ba1ff0ef          	jal	ra,4e3a <__sinit>
    529e:	00001797          	auipc	a5,0x1
    52a2:	c3278793          	addi	a5,a5,-974 # 5ed0 <__sf_fake_stdin>
    52a6:	0cf49763          	bne	s1,a5,5374 <_vfiprintf_r+0x100>
    52aa:	0049a483          	lw	s1,4(s3)
    52ae:	24de                	lhu	a5,12(s1)
    52b0:	8ba1                	andi	a5,a5,8
    52b2:	c3fd                	beqz	a5,5398 <_vfiprintf_r+0x124>
    52b4:	489c                	lw	a5,16(s1)
    52b6:	c3ed                	beqz	a5,5398 <_vfiprintf_r+0x124>
    52b8:	02000793          	li	a5,32
    52bc:	02f104a3          	sb	a5,41(sp)
    52c0:	03000793          	li	a5,48
    52c4:	d202                	sw	zero,36(sp)
    52c6:	02f10523          	sb	a5,42(sp)
    52ca:	c622                	sw	s0,12(sp)
    52cc:	02500b93          	li	s7,37
    52d0:	00001a97          	auipc	s5,0x1
    52d4:	c40a8a93          	addi	s5,s5,-960 # 5f10 <__sf_fake_stdout+0x20>
    52d8:	4c05                	li	s8,1
    52da:	4b29                	li	s6,10
    52dc:	844a                	mv	s0,s2
    52de:	201c                	lbu	a5,0(s0)
    52e0:	c399                	beqz	a5,52e6 <_vfiprintf_r+0x72>
    52e2:	0d779e63          	bne	a5,s7,53be <_vfiprintf_r+0x14a>
    52e6:	41240cb3          	sub	s9,s0,s2
    52ea:	000c8d63          	beqz	s9,5304 <_vfiprintf_r+0x90>
    52ee:	86e6                	mv	a3,s9
    52f0:	864a                	mv	a2,s2
    52f2:	85a6                	mv	a1,s1
    52f4:	854e                	mv	a0,s3
    52f6:	3f3d                	jal	5234 <__sfputs_r>
    52f8:	57fd                	li	a5,-1
    52fa:	1cf50f63          	beq	a0,a5,54d8 <_vfiprintf_r+0x264>
    52fe:	5692                	lw	a3,36(sp)
    5300:	96e6                	add	a3,a3,s9
    5302:	d236                	sw	a3,36(sp)
    5304:	201c                	lbu	a5,0(s0)
    5306:	1c078963          	beqz	a5,54d8 <_vfiprintf_r+0x264>
    530a:	57fd                	li	a5,-1
    530c:	00140913          	addi	s2,s0,1
    5310:	c802                	sw	zero,16(sp)
    5312:	ce02                	sw	zero,28(sp)
    5314:	ca3e                	sw	a5,20(sp)
    5316:	cc02                	sw	zero,24(sp)
    5318:	040109a3          	sb	zero,83(sp)
    531c:	d482                	sw	zero,104(sp)
    531e:	00094583          	lbu	a1,0(s2)
    5322:	4615                	li	a2,5
    5324:	8556                	mv	a0,s5
    5326:	272d                	jal	5a50 <memchr>
    5328:	00190413          	addi	s0,s2,1
    532c:	47c2                	lw	a5,16(sp)
    532e:	e951                	bnez	a0,53c2 <_vfiprintf_r+0x14e>
    5330:	0107f713          	andi	a4,a5,16
    5334:	c709                	beqz	a4,533e <_vfiprintf_r+0xca>
    5336:	02000713          	li	a4,32
    533a:	04e109a3          	sb	a4,83(sp)
    533e:	0087f713          	andi	a4,a5,8
    5342:	c709                	beqz	a4,534c <_vfiprintf_r+0xd8>
    5344:	02b00713          	li	a4,43
    5348:	04e109a3          	sb	a4,83(sp)
    534c:	00094683          	lbu	a3,0(s2)
    5350:	02a00713          	li	a4,42
    5354:	06e68f63          	beq	a3,a4,53d2 <_vfiprintf_r+0x15e>
    5358:	47f2                	lw	a5,28(sp)
    535a:	844a                	mv	s0,s2
    535c:	4681                	li	a3,0
    535e:	4625                	li	a2,9
    5360:	2018                	lbu	a4,0(s0)
    5362:	00140593          	addi	a1,s0,1
    5366:	fd070713          	addi	a4,a4,-48 # ffffdfd0 <_eusrstack+0xdfff8fd0>
    536a:	0ae67763          	bgeu	a2,a4,5418 <_vfiprintf_r+0x1a4>
    536e:	cab5                	beqz	a3,53e2 <_vfiprintf_r+0x16e>
    5370:	ce3e                	sw	a5,28(sp)
    5372:	a885                	j	53e2 <_vfiprintf_r+0x16e>
    5374:	00001797          	auipc	a5,0x1
    5378:	b7c78793          	addi	a5,a5,-1156 # 5ef0 <__sf_fake_stdout>
    537c:	00f49563          	bne	s1,a5,5386 <_vfiprintf_r+0x112>
    5380:	0089a483          	lw	s1,8(s3)
    5384:	b72d                	j	52ae <_vfiprintf_r+0x3a>
    5386:	00001797          	auipc	a5,0x1
    538a:	b2a78793          	addi	a5,a5,-1238 # 5eb0 <__sf_fake_stderr>
    538e:	f2f490e3          	bne	s1,a5,52ae <_vfiprintf_r+0x3a>
    5392:	00c9a483          	lw	s1,12(s3)
    5396:	bf21                	j	52ae <_vfiprintf_r+0x3a>
    5398:	85a6                	mv	a1,s1
    539a:	854e                	mv	a0,s3
    539c:	f56ff0ef          	jal	ra,4af2 <__swsetup_r>
    53a0:	dd01                	beqz	a0,52b8 <_vfiprintf_r+0x44>
    53a2:	557d                	li	a0,-1
    53a4:	40fa                	lw	ra,156(sp)
    53a6:	446a                	lw	s0,152(sp)
    53a8:	44da                	lw	s1,148(sp)
    53aa:	494a                	lw	s2,144(sp)
    53ac:	49ba                	lw	s3,140(sp)
    53ae:	4a2a                	lw	s4,136(sp)
    53b0:	4a9a                	lw	s5,132(sp)
    53b2:	4b0a                	lw	s6,128(sp)
    53b4:	5bf6                	lw	s7,124(sp)
    53b6:	5c66                	lw	s8,120(sp)
    53b8:	5cd6                	lw	s9,116(sp)
    53ba:	610d                	addi	sp,sp,160
    53bc:	8082                	ret
    53be:	0405                	addi	s0,s0,1
    53c0:	bf39                	j	52de <_vfiprintf_r+0x6a>
    53c2:	41550533          	sub	a0,a0,s5
    53c6:	00ac1533          	sll	a0,s8,a0
    53ca:	8fc9                	or	a5,a5,a0
    53cc:	c83e                	sw	a5,16(sp)
    53ce:	8922                	mv	s2,s0
    53d0:	b7b9                	j	531e <_vfiprintf_r+0xaa>
    53d2:	4732                	lw	a4,12(sp)
    53d4:	00470693          	addi	a3,a4,4
    53d8:	4318                	lw	a4,0(a4)
    53da:	c636                	sw	a3,12(sp)
    53dc:	02074763          	bltz	a4,540a <_vfiprintf_r+0x196>
    53e0:	ce3a                	sw	a4,28(sp)
    53e2:	2018                	lbu	a4,0(s0)
    53e4:	02e00793          	li	a5,46
    53e8:	04f71d63          	bne	a4,a5,5442 <_vfiprintf_r+0x1ce>
    53ec:	3018                	lbu	a4,1(s0)
    53ee:	02a00793          	li	a5,42
    53f2:	02f71b63          	bne	a4,a5,5428 <_vfiprintf_r+0x1b4>
    53f6:	47b2                	lw	a5,12(sp)
    53f8:	0409                	addi	s0,s0,2
    53fa:	00478713          	addi	a4,a5,4
    53fe:	439c                	lw	a5,0(a5)
    5400:	c63a                	sw	a4,12(sp)
    5402:	0207c163          	bltz	a5,5424 <_vfiprintf_r+0x1b0>
    5406:	ca3e                	sw	a5,20(sp)
    5408:	a82d                	j	5442 <_vfiprintf_r+0x1ce>
    540a:	40e00733          	neg	a4,a4
    540e:	0027e793          	ori	a5,a5,2
    5412:	ce3a                	sw	a4,28(sp)
    5414:	c83e                	sw	a5,16(sp)
    5416:	b7f1                	j	53e2 <_vfiprintf_r+0x16e>
    5418:	036787b3          	mul	a5,a5,s6
    541c:	4685                	li	a3,1
    541e:	842e                	mv	s0,a1
    5420:	97ba                	add	a5,a5,a4
    5422:	bf3d                	j	5360 <_vfiprintf_r+0xec>
    5424:	57fd                	li	a5,-1
    5426:	b7c5                	j	5406 <_vfiprintf_r+0x192>
    5428:	0405                	addi	s0,s0,1
    542a:	ca02                	sw	zero,20(sp)
    542c:	4681                	li	a3,0
    542e:	4781                	li	a5,0
    5430:	4625                	li	a2,9
    5432:	2018                	lbu	a4,0(s0)
    5434:	00140593          	addi	a1,s0,1
    5438:	fd070713          	addi	a4,a4,-48
    543c:	06e67463          	bgeu	a2,a4,54a4 <_vfiprintf_r+0x230>
    5440:	f2f9                	bnez	a3,5406 <_vfiprintf_r+0x192>
    5442:	200c                	lbu	a1,0(s0)
    5444:	460d                	li	a2,3
    5446:	00001517          	auipc	a0,0x1
    544a:	ad250513          	addi	a0,a0,-1326 # 5f18 <__sf_fake_stdout+0x28>
    544e:	2509                	jal	5a50 <memchr>
    5450:	cd11                	beqz	a0,546c <_vfiprintf_r+0x1f8>
    5452:	00001797          	auipc	a5,0x1
    5456:	ac678793          	addi	a5,a5,-1338 # 5f18 <__sf_fake_stdout+0x28>
    545a:	8d1d                	sub	a0,a0,a5
    545c:	04000793          	li	a5,64
    5460:	00a797b3          	sll	a5,a5,a0
    5464:	4542                	lw	a0,16(sp)
    5466:	0405                	addi	s0,s0,1
    5468:	8d5d                	or	a0,a0,a5
    546a:	c82a                	sw	a0,16(sp)
    546c:	200c                	lbu	a1,0(s0)
    546e:	4619                	li	a2,6
    5470:	00001517          	auipc	a0,0x1
    5474:	aac50513          	addi	a0,a0,-1364 # 5f1c <__sf_fake_stdout+0x2c>
    5478:	00140913          	addi	s2,s0,1
    547c:	02b10423          	sb	a1,40(sp)
    5480:	2bc1                	jal	5a50 <memchr>
    5482:	c135                	beqz	a0,54e6 <_vfiprintf_r+0x272>
    5484:	ffffb797          	auipc	a5,0xffffb
    5488:	b7c78793          	addi	a5,a5,-1156 # 0 <_sinit>
    548c:	e795                	bnez	a5,54b8 <_vfiprintf_r+0x244>
    548e:	4742                	lw	a4,16(sp)
    5490:	47b2                	lw	a5,12(sp)
    5492:	10077713          	andi	a4,a4,256
    5496:	cf09                	beqz	a4,54b0 <_vfiprintf_r+0x23c>
    5498:	0791                	addi	a5,a5,4
    549a:	c63e                	sw	a5,12(sp)
    549c:	5792                	lw	a5,36(sp)
    549e:	97d2                	add	a5,a5,s4
    54a0:	d23e                	sw	a5,36(sp)
    54a2:	bd2d                	j	52dc <_vfiprintf_r+0x68>
    54a4:	036787b3          	mul	a5,a5,s6
    54a8:	4685                	li	a3,1
    54aa:	842e                	mv	s0,a1
    54ac:	97ba                	add	a5,a5,a4
    54ae:	b751                	j	5432 <_vfiprintf_r+0x1be>
    54b0:	079d                	addi	a5,a5,7
    54b2:	9be1                	andi	a5,a5,-8
    54b4:	07a1                	addi	a5,a5,8
    54b6:	b7d5                	j	549a <_vfiprintf_r+0x226>
    54b8:	0078                	addi	a4,sp,12
    54ba:	00000697          	auipc	a3,0x0
    54be:	d7a68693          	addi	a3,a3,-646 # 5234 <__sfputs_r>
    54c2:	8626                	mv	a2,s1
    54c4:	080c                	addi	a1,sp,16
    54c6:	854e                	mv	a0,s3
    54c8:	00000097          	auipc	ra,0x0
    54cc:	000000e7          	jalr	zero # 0 <_sinit>
    54d0:	57fd                	li	a5,-1
    54d2:	8a2a                	mv	s4,a0
    54d4:	fcf514e3          	bne	a0,a5,549c <_vfiprintf_r+0x228>
    54d8:	24de                	lhu	a5,12(s1)
    54da:	0407f793          	andi	a5,a5,64
    54de:	ec0792e3          	bnez	a5,53a2 <_vfiprintf_r+0x12e>
    54e2:	5512                	lw	a0,36(sp)
    54e4:	b5c1                	j	53a4 <_vfiprintf_r+0x130>
    54e6:	0078                	addi	a4,sp,12
    54e8:	00000697          	auipc	a3,0x0
    54ec:	d4c68693          	addi	a3,a3,-692 # 5234 <__sfputs_r>
    54f0:	8626                	mv	a2,s1
    54f2:	080c                	addi	a1,sp,16
    54f4:	854e                	mv	a0,s3
    54f6:	2a01                	jal	5606 <_printf_i>
    54f8:	bfe1                	j	54d0 <_vfiprintf_r+0x25c>

000054fa <_printf_common>:
    54fa:	7179                	addi	sp,sp,-48
    54fc:	ca56                	sw	s5,20(sp)
    54fe:	499c                	lw	a5,16(a1)
    5500:	8aba                	mv	s5,a4
    5502:	4598                	lw	a4,8(a1)
    5504:	d422                	sw	s0,40(sp)
    5506:	d226                	sw	s1,36(sp)
    5508:	ce4e                	sw	s3,28(sp)
    550a:	cc52                	sw	s4,24(sp)
    550c:	d606                	sw	ra,44(sp)
    550e:	d04a                	sw	s2,32(sp)
    5510:	c85a                	sw	s6,16(sp)
    5512:	c65e                	sw	s7,12(sp)
    5514:	89aa                	mv	s3,a0
    5516:	842e                	mv	s0,a1
    5518:	84b2                	mv	s1,a2
    551a:	8a36                	mv	s4,a3
    551c:	00e7d363          	bge	a5,a4,5522 <_printf_common+0x28>
    5520:	87ba                	mv	a5,a4
    5522:	c09c                	sw	a5,0(s1)
    5524:	04344703          	lbu	a4,67(s0)
    5528:	c319                	beqz	a4,552e <_printf_common+0x34>
    552a:	0785                	addi	a5,a5,1
    552c:	c09c                	sw	a5,0(s1)
    552e:	401c                	lw	a5,0(s0)
    5530:	0207f793          	andi	a5,a5,32
    5534:	c781                	beqz	a5,553c <_printf_common+0x42>
    5536:	409c                	lw	a5,0(s1)
    5538:	0789                	addi	a5,a5,2
    553a:	c09c                	sw	a5,0(s1)
    553c:	00042903          	lw	s2,0(s0)
    5540:	00697913          	andi	s2,s2,6
    5544:	00091a63          	bnez	s2,5558 <_printf_common+0x5e>
    5548:	01940b13          	addi	s6,s0,25
    554c:	5bfd                	li	s7,-1
    554e:	445c                	lw	a5,12(s0)
    5550:	4098                	lw	a4,0(s1)
    5552:	8f99                	sub	a5,a5,a4
    5554:	04f94c63          	blt	s2,a5,55ac <_printf_common+0xb2>
    5558:	401c                	lw	a5,0(s0)
    555a:	04344683          	lbu	a3,67(s0)
    555e:	0207f793          	andi	a5,a5,32
    5562:	00d036b3          	snez	a3,a3
    5566:	eba5                	bnez	a5,55d6 <_printf_common+0xdc>
    5568:	04340613          	addi	a2,s0,67
    556c:	85d2                	mv	a1,s4
    556e:	854e                	mv	a0,s3
    5570:	9a82                	jalr	s5
    5572:	57fd                	li	a5,-1
    5574:	04f50363          	beq	a0,a5,55ba <_printf_common+0xc0>
    5578:	401c                	lw	a5,0(s0)
    557a:	4611                	li	a2,4
    557c:	4098                	lw	a4,0(s1)
    557e:	8b99                	andi	a5,a5,6
    5580:	4454                	lw	a3,12(s0)
    5582:	4481                	li	s1,0
    5584:	00c79763          	bne	a5,a2,5592 <_printf_common+0x98>
    5588:	40e684b3          	sub	s1,a3,a4
    558c:	0004d363          	bgez	s1,5592 <_printf_common+0x98>
    5590:	4481                	li	s1,0
    5592:	441c                	lw	a5,8(s0)
    5594:	4818                	lw	a4,16(s0)
    5596:	00f75463          	bge	a4,a5,559e <_printf_common+0xa4>
    559a:	8f99                	sub	a5,a5,a4
    559c:	94be                	add	s1,s1,a5
    559e:	4901                	li	s2,0
    55a0:	0469                	addi	s0,s0,26
    55a2:	5b7d                	li	s6,-1
    55a4:	05249863          	bne	s1,s2,55f4 <_printf_common+0xfa>
    55a8:	4501                	li	a0,0
    55aa:	a809                	j	55bc <_printf_common+0xc2>
    55ac:	4685                	li	a3,1
    55ae:	865a                	mv	a2,s6
    55b0:	85d2                	mv	a1,s4
    55b2:	854e                	mv	a0,s3
    55b4:	9a82                	jalr	s5
    55b6:	01751e63          	bne	a0,s7,55d2 <_printf_common+0xd8>
    55ba:	557d                	li	a0,-1
    55bc:	50b2                	lw	ra,44(sp)
    55be:	5422                	lw	s0,40(sp)
    55c0:	5492                	lw	s1,36(sp)
    55c2:	5902                	lw	s2,32(sp)
    55c4:	49f2                	lw	s3,28(sp)
    55c6:	4a62                	lw	s4,24(sp)
    55c8:	4ad2                	lw	s5,20(sp)
    55ca:	4b42                	lw	s6,16(sp)
    55cc:	4bb2                	lw	s7,12(sp)
    55ce:	6145                	addi	sp,sp,48
    55d0:	8082                	ret
    55d2:	0905                	addi	s2,s2,1
    55d4:	bfad                	j	554e <_printf_common+0x54>
    55d6:	00d40733          	add	a4,s0,a3
    55da:	03000613          	li	a2,48
    55de:	04c701a3          	sb	a2,67(a4)
    55e2:	04544703          	lbu	a4,69(s0)
    55e6:	00168793          	addi	a5,a3,1
    55ea:	97a2                	add	a5,a5,s0
    55ec:	0689                	addi	a3,a3,2
    55ee:	04e781a3          	sb	a4,67(a5)
    55f2:	bf9d                	j	5568 <_printf_common+0x6e>
    55f4:	4685                	li	a3,1
    55f6:	8622                	mv	a2,s0
    55f8:	85d2                	mv	a1,s4
    55fa:	854e                	mv	a0,s3
    55fc:	9a82                	jalr	s5
    55fe:	fb650ee3          	beq	a0,s6,55ba <_printf_common+0xc0>
    5602:	0905                	addi	s2,s2,1
    5604:	b745                	j	55a4 <_printf_common+0xaa>

00005606 <_printf_i>:
    5606:	7179                	addi	sp,sp,-48
    5608:	d422                	sw	s0,40(sp)
    560a:	d226                	sw	s1,36(sp)
    560c:	d04a                	sw	s2,32(sp)
    560e:	ce4e                	sw	s3,28(sp)
    5610:	d606                	sw	ra,44(sp)
    5612:	cc52                	sw	s4,24(sp)
    5614:	ca56                	sw	s5,20(sp)
    5616:	c85a                	sw	s6,16(sp)
    5618:	89b6                	mv	s3,a3
    561a:	2d94                	lbu	a3,24(a1)
    561c:	06900793          	li	a5,105
    5620:	8932                	mv	s2,a2
    5622:	84aa                	mv	s1,a0
    5624:	842e                	mv	s0,a1
    5626:	04358613          	addi	a2,a1,67
    562a:	02f68d63          	beq	a3,a5,5664 <_printf_i+0x5e>
    562e:	06d7e263          	bltu	a5,a3,5692 <_printf_i+0x8c>
    5632:	05800793          	li	a5,88
    5636:	18f68663          	beq	a3,a5,57c2 <_printf_i+0x1bc>
    563a:	00d7ed63          	bltu	a5,a3,5654 <_printf_i+0x4e>
    563e:	20068e63          	beqz	a3,585a <_printf_i+0x254>
    5642:	04300793          	li	a5,67
    5646:	0af68e63          	beq	a3,a5,5702 <_printf_i+0xfc>
    564a:	04240a93          	addi	s5,s0,66
    564e:	04d40123          	sb	a3,66(s0)
    5652:	a0c9                	j	5714 <_printf_i+0x10e>
    5654:	06300793          	li	a5,99
    5658:	0af68563          	beq	a3,a5,5702 <_printf_i+0xfc>
    565c:	06400793          	li	a5,100
    5660:	fef695e3          	bne	a3,a5,564a <_printf_i+0x44>
    5664:	401c                	lw	a5,0(s0)
    5666:	4308                	lw	a0,0(a4)
    5668:	0807f693          	andi	a3,a5,128
    566c:	00450593          	addi	a1,a0,4
    5670:	c6c5                	beqz	a3,5718 <_printf_i+0x112>
    5672:	411c                	lw	a5,0(a0)
    5674:	c30c                	sw	a1,0(a4)
    5676:	0007d863          	bgez	a5,5686 <_printf_i+0x80>
    567a:	02d00713          	li	a4,45
    567e:	40f007b3          	neg	a5,a5
    5682:	04e401a3          	sb	a4,67(s0)
    5686:	00001697          	auipc	a3,0x1
    568a:	89e68693          	addi	a3,a3,-1890 # 5f24 <__sf_fake_stdout+0x34>
    568e:	4729                	li	a4,10
    5690:	a865                	j	5748 <_printf_i+0x142>
    5692:	07000793          	li	a5,112
    5696:	16f68263          	beq	a3,a5,57fa <_printf_i+0x1f4>
    569a:	02d7e563          	bltu	a5,a3,56c4 <_printf_i+0xbe>
    569e:	06e00793          	li	a5,110
    56a2:	18f68963          	beq	a3,a5,5834 <_printf_i+0x22e>
    56a6:	06f00793          	li	a5,111
    56aa:	faf690e3          	bne	a3,a5,564a <_printf_i+0x44>
    56ae:	400c                	lw	a1,0(s0)
    56b0:	431c                	lw	a5,0(a4)
    56b2:	0805f813          	andi	a6,a1,128
    56b6:	00478513          	addi	a0,a5,4
    56ba:	06080763          	beqz	a6,5728 <_printf_i+0x122>
    56be:	c308                	sw	a0,0(a4)
    56c0:	439c                	lw	a5,0(a5)
    56c2:	a885                	j	5732 <_printf_i+0x12c>
    56c4:	07500793          	li	a5,117
    56c8:	fef683e3          	beq	a3,a5,56ae <_printf_i+0xa8>
    56cc:	07800793          	li	a5,120
    56d0:	12f68963          	beq	a3,a5,5802 <_printf_i+0x1fc>
    56d4:	07300793          	li	a5,115
    56d8:	f6f699e3          	bne	a3,a5,564a <_printf_i+0x44>
    56dc:	431c                	lw	a5,0(a4)
    56de:	41d0                	lw	a2,4(a1)
    56e0:	4581                	li	a1,0
    56e2:	00478693          	addi	a3,a5,4
    56e6:	c314                	sw	a3,0(a4)
    56e8:	0007aa83          	lw	s5,0(a5)
    56ec:	8556                	mv	a0,s5
    56ee:	268d                	jal	5a50 <memchr>
    56f0:	c501                	beqz	a0,56f8 <_printf_i+0xf2>
    56f2:	41550533          	sub	a0,a0,s5
    56f6:	c048                	sw	a0,4(s0)
    56f8:	405c                	lw	a5,4(s0)
    56fa:	c81c                	sw	a5,16(s0)
    56fc:	040401a3          	sb	zero,67(s0)
    5700:	a861                	j	5798 <_printf_i+0x192>
    5702:	431c                	lw	a5,0(a4)
    5704:	04240a93          	addi	s5,s0,66
    5708:	00478693          	addi	a3,a5,4
    570c:	439c                	lw	a5,0(a5)
    570e:	c314                	sw	a3,0(a4)
    5710:	04f40123          	sb	a5,66(s0)
    5714:	4785                	li	a5,1
    5716:	b7d5                	j	56fa <_printf_i+0xf4>
    5718:	0407f693          	andi	a3,a5,64
    571c:	411c                	lw	a5,0(a0)
    571e:	c30c                	sw	a1,0(a4)
    5720:	dab9                	beqz	a3,5676 <_printf_i+0x70>
    5722:	07c2                	slli	a5,a5,0x10
    5724:	87c1                	srai	a5,a5,0x10
    5726:	bf81                	j	5676 <_printf_i+0x70>
    5728:	0405f593          	andi	a1,a1,64
    572c:	c308                	sw	a0,0(a4)
    572e:	d9c9                	beqz	a1,56c0 <_printf_i+0xba>
    5730:	239e                	lhu	a5,0(a5)
    5732:	06f00713          	li	a4,111
    5736:	0ee68763          	beq	a3,a4,5824 <_printf_i+0x21e>
    573a:	00000697          	auipc	a3,0x0
    573e:	7ea68693          	addi	a3,a3,2026 # 5f24 <__sf_fake_stdout+0x34>
    5742:	4729                	li	a4,10
    5744:	040401a3          	sb	zero,67(s0)
    5748:	404c                	lw	a1,4(s0)
    574a:	c40c                	sw	a1,8(s0)
    574c:	0005c563          	bltz	a1,5756 <_printf_i+0x150>
    5750:	4008                	lw	a0,0(s0)
    5752:	996d                	andi	a0,a0,-5
    5754:	c008                	sw	a0,0(s0)
    5756:	e399                	bnez	a5,575c <_printf_i+0x156>
    5758:	8ab2                	mv	s5,a2
    575a:	cd89                	beqz	a1,5774 <_printf_i+0x16e>
    575c:	8ab2                	mv	s5,a2
    575e:	02e7f5b3          	remu	a1,a5,a4
    5762:	1afd                	addi	s5,s5,-1
    5764:	95b6                	add	a1,a1,a3
    5766:	218c                	lbu	a1,0(a1)
    5768:	00ba8023          	sb	a1,0(s5)
    576c:	02e7d5b3          	divu	a1,a5,a4
    5770:	0ce7f063          	bgeu	a5,a4,5830 <_printf_i+0x22a>
    5774:	47a1                	li	a5,8
    5776:	00f71e63          	bne	a4,a5,5792 <_printf_i+0x18c>
    577a:	401c                	lw	a5,0(s0)
    577c:	8b85                	andi	a5,a5,1
    577e:	cb91                	beqz	a5,5792 <_printf_i+0x18c>
    5780:	4058                	lw	a4,4(s0)
    5782:	481c                	lw	a5,16(s0)
    5784:	00e7c763          	blt	a5,a4,5792 <_printf_i+0x18c>
    5788:	03000793          	li	a5,48
    578c:	fefa8fa3          	sb	a5,-1(s5)
    5790:	1afd                	addi	s5,s5,-1
    5792:	41560633          	sub	a2,a2,s5
    5796:	c810                	sw	a2,16(s0)
    5798:	874e                	mv	a4,s3
    579a:	86ca                	mv	a3,s2
    579c:	0070                	addi	a2,sp,12
    579e:	85a2                	mv	a1,s0
    57a0:	8526                	mv	a0,s1
    57a2:	d59ff0ef          	jal	ra,54fa <_printf_common>
    57a6:	5a7d                	li	s4,-1
    57a8:	0b451d63          	bne	a0,s4,5862 <_printf_i+0x25c>
    57ac:	557d                	li	a0,-1
    57ae:	50b2                	lw	ra,44(sp)
    57b0:	5422                	lw	s0,40(sp)
    57b2:	5492                	lw	s1,36(sp)
    57b4:	5902                	lw	s2,32(sp)
    57b6:	49f2                	lw	s3,28(sp)
    57b8:	4a62                	lw	s4,24(sp)
    57ba:	4ad2                	lw	s5,20(sp)
    57bc:	4b42                	lw	s6,16(sp)
    57be:	6145                	addi	sp,sp,48
    57c0:	8082                	ret
    57c2:	04d582a3          	sb	a3,69(a1)
    57c6:	00000697          	auipc	a3,0x0
    57ca:	75e68693          	addi	a3,a3,1886 # 5f24 <__sf_fake_stdout+0x34>
    57ce:	400c                	lw	a1,0(s0)
    57d0:	4308                	lw	a0,0(a4)
    57d2:	0805f813          	andi	a6,a1,128
    57d6:	411c                	lw	a5,0(a0)
    57d8:	0511                	addi	a0,a0,4
    57da:	02080d63          	beqz	a6,5814 <_printf_i+0x20e>
    57de:	c308                	sw	a0,0(a4)
    57e0:	0015f713          	andi	a4,a1,1
    57e4:	c701                	beqz	a4,57ec <_printf_i+0x1e6>
    57e6:	0205e593          	ori	a1,a1,32
    57ea:	c00c                	sw	a1,0(s0)
    57ec:	4741                	li	a4,16
    57ee:	fbb9                	bnez	a5,5744 <_printf_i+0x13e>
    57f0:	400c                	lw	a1,0(s0)
    57f2:	fdf5f593          	andi	a1,a1,-33
    57f6:	c00c                	sw	a1,0(s0)
    57f8:	b7b1                	j	5744 <_printf_i+0x13e>
    57fa:	419c                	lw	a5,0(a1)
    57fc:	0207e793          	ori	a5,a5,32
    5800:	c19c                	sw	a5,0(a1)
    5802:	07800793          	li	a5,120
    5806:	04f402a3          	sb	a5,69(s0)
    580a:	00000697          	auipc	a3,0x0
    580e:	72e68693          	addi	a3,a3,1838 # 5f38 <__sf_fake_stdout+0x48>
    5812:	bf75                	j	57ce <_printf_i+0x1c8>
    5814:	0405f813          	andi	a6,a1,64
    5818:	c308                	sw	a0,0(a4)
    581a:	fc0803e3          	beqz	a6,57e0 <_printf_i+0x1da>
    581e:	07c2                	slli	a5,a5,0x10
    5820:	83c1                	srli	a5,a5,0x10
    5822:	bf7d                	j	57e0 <_printf_i+0x1da>
    5824:	00000697          	auipc	a3,0x0
    5828:	70068693          	addi	a3,a3,1792 # 5f24 <__sf_fake_stdout+0x34>
    582c:	4721                	li	a4,8
    582e:	bf19                	j	5744 <_printf_i+0x13e>
    5830:	87ae                	mv	a5,a1
    5832:	b735                	j	575e <_printf_i+0x158>
    5834:	4194                	lw	a3,0(a1)
    5836:	431c                	lw	a5,0(a4)
    5838:	49cc                	lw	a1,20(a1)
    583a:	0806f813          	andi	a6,a3,128
    583e:	00478513          	addi	a0,a5,4
    5842:	00080663          	beqz	a6,584e <_printf_i+0x248>
    5846:	c308                	sw	a0,0(a4)
    5848:	439c                	lw	a5,0(a5)
    584a:	c38c                	sw	a1,0(a5)
    584c:	a039                	j	585a <_printf_i+0x254>
    584e:	c308                	sw	a0,0(a4)
    5850:	0406f693          	andi	a3,a3,64
    5854:	439c                	lw	a5,0(a5)
    5856:	daf5                	beqz	a3,584a <_printf_i+0x244>
    5858:	a38e                	sh	a1,0(a5)
    585a:	00042823          	sw	zero,16(s0)
    585e:	8ab2                	mv	s5,a2
    5860:	bf25                	j	5798 <_printf_i+0x192>
    5862:	4814                	lw	a3,16(s0)
    5864:	8656                	mv	a2,s5
    5866:	85ca                	mv	a1,s2
    5868:	8526                	mv	a0,s1
    586a:	9982                	jalr	s3
    586c:	f54500e3          	beq	a0,s4,57ac <_printf_i+0x1a6>
    5870:	401c                	lw	a5,0(s0)
    5872:	8b89                	andi	a5,a5,2
    5874:	e78d                	bnez	a5,589e <_printf_i+0x298>
    5876:	47b2                	lw	a5,12(sp)
    5878:	4448                	lw	a0,12(s0)
    587a:	f2f55ae3          	bge	a0,a5,57ae <_printf_i+0x1a8>
    587e:	853e                	mv	a0,a5
    5880:	b73d                	j	57ae <_printf_i+0x1a8>
    5882:	4685                	li	a3,1
    5884:	8656                	mv	a2,s5
    5886:	85ca                	mv	a1,s2
    5888:	8526                	mv	a0,s1
    588a:	9982                	jalr	s3
    588c:	f36500e3          	beq	a0,s6,57ac <_printf_i+0x1a6>
    5890:	0a05                	addi	s4,s4,1
    5892:	445c                	lw	a5,12(s0)
    5894:	4732                	lw	a4,12(sp)
    5896:	8f99                	sub	a5,a5,a4
    5898:	fefa45e3          	blt	s4,a5,5882 <_printf_i+0x27c>
    589c:	bfe9                	j	5876 <_printf_i+0x270>
    589e:	4a01                	li	s4,0
    58a0:	01940a93          	addi	s5,s0,25
    58a4:	5b7d                	li	s6,-1
    58a6:	b7f5                	j	5892 <_printf_i+0x28c>

000058a8 <_sbrk_r>:
    58a8:	1141                	addi	sp,sp,-16
    58aa:	c422                	sw	s0,8(sp)
    58ac:	842a                	mv	s0,a0
    58ae:	852e                	mv	a0,a1
    58b0:	8201ac23          	sw	zero,-1992(gp) # 200001c8 <errno>
    58b4:	c606                	sw	ra,12(sp)
    58b6:	d35fb0ef          	jal	ra,15ea <_sbrk>
    58ba:	57fd                	li	a5,-1
    58bc:	00f51763          	bne	a0,a5,58ca <_sbrk_r+0x22>
    58c0:	83818793          	addi	a5,gp,-1992 # 200001c8 <errno>
    58c4:	439c                	lw	a5,0(a5)
    58c6:	c391                	beqz	a5,58ca <_sbrk_r+0x22>
    58c8:	c01c                	sw	a5,0(s0)
    58ca:	40b2                	lw	ra,12(sp)
    58cc:	4422                	lw	s0,8(sp)
    58ce:	0141                	addi	sp,sp,16
    58d0:	8082                	ret

000058d2 <__sread>:
    58d2:	1141                	addi	sp,sp,-16
    58d4:	c422                	sw	s0,8(sp)
    58d6:	842e                	mv	s0,a1
    58d8:	00e59583          	lh	a1,14(a1)
    58dc:	c606                	sw	ra,12(sp)
    58de:	2279                	jal	5a6c <_read_r>
    58e0:	00054963          	bltz	a0,58f2 <__sread+0x20>
    58e4:	487c                	lw	a5,84(s0)
    58e6:	97aa                	add	a5,a5,a0
    58e8:	c87c                	sw	a5,84(s0)
    58ea:	40b2                	lw	ra,12(sp)
    58ec:	4422                	lw	s0,8(sp)
    58ee:	0141                	addi	sp,sp,16
    58f0:	8082                	ret
    58f2:	245e                	lhu	a5,12(s0)
    58f4:	777d                	lui	a4,0xfffff
    58f6:	177d                	addi	a4,a4,-1
    58f8:	8ff9                	and	a5,a5,a4
    58fa:	a45e                	sh	a5,12(s0)
    58fc:	b7fd                	j	58ea <__sread+0x18>

000058fe <__swrite>:
    58fe:	25de                	lhu	a5,12(a1)
    5900:	1101                	addi	sp,sp,-32
    5902:	cc22                	sw	s0,24(sp)
    5904:	ca26                	sw	s1,20(sp)
    5906:	c84a                	sw	s2,16(sp)
    5908:	c64e                	sw	s3,12(sp)
    590a:	ce06                	sw	ra,28(sp)
    590c:	1007f793          	andi	a5,a5,256
    5910:	84aa                	mv	s1,a0
    5912:	842e                	mv	s0,a1
    5914:	8932                	mv	s2,a2
    5916:	89b6                	mv	s3,a3
    5918:	c791                	beqz	a5,5924 <__swrite+0x26>
    591a:	00e59583          	lh	a1,14(a1)
    591e:	4689                	li	a3,2
    5920:	4601                	li	a2,0
    5922:	2209                	jal	5a24 <_lseek_r>
    5924:	245e                	lhu	a5,12(s0)
    5926:	777d                	lui	a4,0xfffff
    5928:	177d                	addi	a4,a4,-1
    592a:	8ff9                	and	a5,a5,a4
    592c:	a45e                	sh	a5,12(s0)
    592e:	00e41583          	lh	a1,14(s0)
    5932:	4462                	lw	s0,24(sp)
    5934:	40f2                	lw	ra,28(sp)
    5936:	86ce                	mv	a3,s3
    5938:	864a                	mv	a2,s2
    593a:	49b2                	lw	s3,12(sp)
    593c:	4942                	lw	s2,16(sp)
    593e:	8526                	mv	a0,s1
    5940:	44d2                	lw	s1,20(sp)
    5942:	6105                	addi	sp,sp,32
    5944:	a825                	j	597c <_write_r>

00005946 <__sseek>:
    5946:	1141                	addi	sp,sp,-16
    5948:	c422                	sw	s0,8(sp)
    594a:	842e                	mv	s0,a1
    594c:	00e59583          	lh	a1,14(a1)
    5950:	c606                	sw	ra,12(sp)
    5952:	28c9                	jal	5a24 <_lseek_r>
    5954:	57fd                	li	a5,-1
    5956:	245a                	lhu	a4,12(s0)
    5958:	00f51a63          	bne	a0,a5,596c <__sseek+0x26>
    595c:	77fd                	lui	a5,0xfffff
    595e:	17fd                	addi	a5,a5,-1
    5960:	8ff9                	and	a5,a5,a4
    5962:	a45e                	sh	a5,12(s0)
    5964:	40b2                	lw	ra,12(sp)
    5966:	4422                	lw	s0,8(sp)
    5968:	0141                	addi	sp,sp,16
    596a:	8082                	ret
    596c:	6785                	lui	a5,0x1
    596e:	8fd9                	or	a5,a5,a4
    5970:	a45e                	sh	a5,12(s0)
    5972:	c868                	sw	a0,84(s0)
    5974:	bfc5                	j	5964 <__sseek+0x1e>

00005976 <__sclose>:
    5976:	00e59583          	lh	a1,14(a1)
    597a:	a805                	j	59aa <_close_r>

0000597c <_write_r>:
    597c:	1141                	addi	sp,sp,-16
    597e:	c422                	sw	s0,8(sp)
    5980:	842a                	mv	s0,a0
    5982:	852e                	mv	a0,a1
    5984:	85b2                	mv	a1,a2
    5986:	8636                	mv	a2,a3
    5988:	8201ac23          	sw	zero,-1992(gp) # 200001c8 <errno>
    598c:	c606                	sw	ra,12(sp)
    598e:	c23fb0ef          	jal	ra,15b0 <_write>
    5992:	57fd                	li	a5,-1
    5994:	00f51763          	bne	a0,a5,59a2 <_write_r+0x26>
    5998:	83818793          	addi	a5,gp,-1992 # 200001c8 <errno>
    599c:	439c                	lw	a5,0(a5)
    599e:	c391                	beqz	a5,59a2 <_write_r+0x26>
    59a0:	c01c                	sw	a5,0(s0)
    59a2:	40b2                	lw	ra,12(sp)
    59a4:	4422                	lw	s0,8(sp)
    59a6:	0141                	addi	sp,sp,16
    59a8:	8082                	ret

000059aa <_close_r>:
    59aa:	1141                	addi	sp,sp,-16
    59ac:	c422                	sw	s0,8(sp)
    59ae:	842a                	mv	s0,a0
    59b0:	852e                	mv	a0,a1
    59b2:	8201ac23          	sw	zero,-1992(gp) # 200001c8 <errno>
    59b6:	c606                	sw	ra,12(sp)
    59b8:	20c5                	jal	5a98 <_close>
    59ba:	57fd                	li	a5,-1
    59bc:	00f51763          	bne	a0,a5,59ca <_close_r+0x20>
    59c0:	83818793          	addi	a5,gp,-1992 # 200001c8 <errno>
    59c4:	439c                	lw	a5,0(a5)
    59c6:	c391                	beqz	a5,59ca <_close_r+0x20>
    59c8:	c01c                	sw	a5,0(s0)
    59ca:	40b2                	lw	ra,12(sp)
    59cc:	4422                	lw	s0,8(sp)
    59ce:	0141                	addi	sp,sp,16
    59d0:	8082                	ret

000059d2 <_fstat_r>:
    59d2:	1141                	addi	sp,sp,-16
    59d4:	c422                	sw	s0,8(sp)
    59d6:	842a                	mv	s0,a0
    59d8:	852e                	mv	a0,a1
    59da:	85b2                	mv	a1,a2
    59dc:	8201ac23          	sw	zero,-1992(gp) # 200001c8 <errno>
    59e0:	c606                	sw	ra,12(sp)
    59e2:	20c9                	jal	5aa4 <_fstat>
    59e4:	57fd                	li	a5,-1
    59e6:	00f51763          	bne	a0,a5,59f4 <_fstat_r+0x22>
    59ea:	83818793          	addi	a5,gp,-1992 # 200001c8 <errno>
    59ee:	439c                	lw	a5,0(a5)
    59f0:	c391                	beqz	a5,59f4 <_fstat_r+0x22>
    59f2:	c01c                	sw	a5,0(s0)
    59f4:	40b2                	lw	ra,12(sp)
    59f6:	4422                	lw	s0,8(sp)
    59f8:	0141                	addi	sp,sp,16
    59fa:	8082                	ret

000059fc <_isatty_r>:
    59fc:	1141                	addi	sp,sp,-16
    59fe:	c422                	sw	s0,8(sp)
    5a00:	842a                	mv	s0,a0
    5a02:	852e                	mv	a0,a1
    5a04:	8201ac23          	sw	zero,-1992(gp) # 200001c8 <errno>
    5a08:	c606                	sw	ra,12(sp)
    5a0a:	205d                	jal	5ab0 <_isatty>
    5a0c:	57fd                	li	a5,-1
    5a0e:	00f51763          	bne	a0,a5,5a1c <_isatty_r+0x20>
    5a12:	83818793          	addi	a5,gp,-1992 # 200001c8 <errno>
    5a16:	439c                	lw	a5,0(a5)
    5a18:	c391                	beqz	a5,5a1c <_isatty_r+0x20>
    5a1a:	c01c                	sw	a5,0(s0)
    5a1c:	40b2                	lw	ra,12(sp)
    5a1e:	4422                	lw	s0,8(sp)
    5a20:	0141                	addi	sp,sp,16
    5a22:	8082                	ret

00005a24 <_lseek_r>:
    5a24:	1141                	addi	sp,sp,-16
    5a26:	c422                	sw	s0,8(sp)
    5a28:	842a                	mv	s0,a0
    5a2a:	852e                	mv	a0,a1
    5a2c:	85b2                	mv	a1,a2
    5a2e:	8636                	mv	a2,a3
    5a30:	8201ac23          	sw	zero,-1992(gp) # 200001c8 <errno>
    5a34:	c606                	sw	ra,12(sp)
    5a36:	2059                	jal	5abc <_lseek>
    5a38:	57fd                	li	a5,-1
    5a3a:	00f51763          	bne	a0,a5,5a48 <_lseek_r+0x24>
    5a3e:	83818793          	addi	a5,gp,-1992 # 200001c8 <errno>
    5a42:	439c                	lw	a5,0(a5)
    5a44:	c391                	beqz	a5,5a48 <_lseek_r+0x24>
    5a46:	c01c                	sw	a5,0(s0)
    5a48:	40b2                	lw	ra,12(sp)
    5a4a:	4422                	lw	s0,8(sp)
    5a4c:	0141                	addi	sp,sp,16
    5a4e:	8082                	ret

00005a50 <memchr>:
    5a50:	0ff5f593          	andi	a1,a1,255
    5a54:	962a                	add	a2,a2,a0
    5a56:	00c51463          	bne	a0,a2,5a5e <memchr+0xe>
    5a5a:	4501                	li	a0,0
    5a5c:	8082                	ret
    5a5e:	211c                	lbu	a5,0(a0)
    5a60:	feb78ee3          	beq	a5,a1,5a5c <memchr+0xc>
    5a64:	0505                	addi	a0,a0,1
    5a66:	bfc5                	j	5a56 <memchr+0x6>

00005a68 <__malloc_lock>:
    5a68:	8082                	ret

00005a6a <__malloc_unlock>:
    5a6a:	8082                	ret

00005a6c <_read_r>:
    5a6c:	1141                	addi	sp,sp,-16
    5a6e:	c422                	sw	s0,8(sp)
    5a70:	842a                	mv	s0,a0
    5a72:	852e                	mv	a0,a1
    5a74:	85b2                	mv	a1,a2
    5a76:	8636                	mv	a2,a3
    5a78:	8201ac23          	sw	zero,-1992(gp) # 200001c8 <errno>
    5a7c:	c606                	sw	ra,12(sp)
    5a7e:	20a9                	jal	5ac8 <_read>
    5a80:	57fd                	li	a5,-1
    5a82:	00f51763          	bne	a0,a5,5a90 <_read_r+0x24>
    5a86:	83818793          	addi	a5,gp,-1992 # 200001c8 <errno>
    5a8a:	439c                	lw	a5,0(a5)
    5a8c:	c391                	beqz	a5,5a90 <_read_r+0x24>
    5a8e:	c01c                	sw	a5,0(s0)
    5a90:	40b2                	lw	ra,12(sp)
    5a92:	4422                	lw	s0,8(sp)
    5a94:	0141                	addi	sp,sp,16
    5a96:	8082                	ret

00005a98 <_close>:
    5a98:	05800793          	li	a5,88
    5a9c:	82f1ac23          	sw	a5,-1992(gp) # 200001c8 <errno>
    5aa0:	557d                	li	a0,-1
    5aa2:	8082                	ret

00005aa4 <_fstat>:
    5aa4:	05800793          	li	a5,88
    5aa8:	82f1ac23          	sw	a5,-1992(gp) # 200001c8 <errno>
    5aac:	557d                	li	a0,-1
    5aae:	8082                	ret

00005ab0 <_isatty>:
    5ab0:	05800793          	li	a5,88
    5ab4:	82f1ac23          	sw	a5,-1992(gp) # 200001c8 <errno>
    5ab8:	4501                	li	a0,0
    5aba:	8082                	ret

00005abc <_lseek>:
    5abc:	05800793          	li	a5,88
    5ac0:	82f1ac23          	sw	a5,-1992(gp) # 200001c8 <errno>
    5ac4:	557d                	li	a0,-1
    5ac6:	8082                	ret

00005ac8 <_read>:
    5ac8:	05800793          	li	a5,88
    5acc:	82f1ac23          	sw	a5,-1992(gp) # 200001c8 <errno>
    5ad0:	557d                	li	a0,-1
    5ad2:	8082                	ret
    5ad4:	f000                	fsw	fs0,32(s0)
    5ad6:	457f                	0x457f
    5ad8:	e000                	fsw	fs0,0(s0)
    5ada:	8000462b          	0x8000462b
    5ade:	4509                	li	a0,2
    5ae0:	4000                	lw	s0,0(s0)
    5ae2:	461c                	lw	a5,8(a2)
    5ae4:	0000                	unimp
    5ae6:	0000                	unimp
    5ae8:	ab8c32c7          	fmsub.d	ft5,fs8,fs8,fs5,rup
    5aec:	7131                	addi	sp,sp,-192
    5aee:	3f30                	lbu	a2,27(a4)
    5af0:	dcb5db83          	lhu	s7,-565(a1)
    5af4:	79e1                	lui	s3,0xffff8
    5af6:	00003f6b          	0x3f6b
    5afa:	0000                	unimp
    5afc:	0000                	unimp
    5afe:	3ff0                	lbu	a2,31(a5)
    5b00:	6666                	flw	fa2,88(sp)
    5b02:	6666                	flw	fa2,88(sp)
    5b04:	1266                	slli	tp,tp,0x39
    5b06:	4071                	c.li	zero,28
    5b08:	6552                	flw	fa0,20(sp)
    5b0a:	6461                	lui	s0,0x18
    5b0c:	6620                	flw	fs0,72(a2)
    5b0e:	616c                	flw	fa1,68(a0)
    5b10:	000d6873          	csrrsi	a6,ustatus,26
    5b14:	6461                	lui	s0,0x18
    5b16:	2d72                	lhu	a2,30(a0)
    5b18:	3025                	jal	5340 <_vfiprintf_r+0xcc>
    5b1a:	7838                	flw	fa4,112(s0)
    5b1c:	7620                	flw	fs0,104(a2)
    5b1e:	252d                	jal	6148 <_data_lma+0x1fc>
    5b20:	3830                	lbu	a2,19(s0)
    5b22:	0d78                	addi	a4,sp,668
    5b24:	000a                	c.slli	zero,0x2
    5b26:	0000                	unimp
    5b28:	63656863          	bltu	a0,s6,6158 <_data_lma+0x20c>
    5b2c:	4c46206b          	0x4c46206b
    5b30:	5341                	li	t1,-16
    5b32:	5f48                	lw	a0,60(a4)
    5b34:	4441                	li	s0,16
    5b36:	5f52                	lw	t5,52(sp)
    5b38:	4152                	lw	sp,20(sp)
    5b3a:	474e                	lw	a4,208(sp)
    5b3c:	5f45                	li	t5,-15
    5b3e:	5245                	li	tp,-15
    5b40:	4f52                	lw	t5,20(sp)
    5b42:	2052                	lhu	a2,4(s0)
    5b44:	4c46                	lw	s8,80(sp)
    5b46:	5341                	li	t1,-16
    5b48:	5f48                	lw	a0,60(a4)
    5b4a:	4c41                	li	s8,16
    5b4c:	4749                	li	a4,18
    5b4e:	5f4e                	lw	t5,240(sp)
    5b50:	5245                	li	tp,-15
    5b52:	4f52                	lw	t5,20(sp)
    5b54:	2052                	lhu	a2,4(s0)
    5b56:	4620726f          	jal	tp,cfb8 <_data_lma+0x706c>
    5b5a:	414c                	lw	a1,4(a0)
    5b5c:	4f5f4853          	0x4f5f4853
    5b60:	5f50                	lw	a2,60(a4)
    5b62:	4152                	lw	sp,20(sp)
    5b64:	474e                	lw	a4,208(sp)
    5b66:	5f45                	li	t5,-15
    5b68:	5245                	li	tp,-15
    5b6a:	4f52                	lw	t5,20(sp)
    5b6c:	0d52                	slli	s10,s10,0x14
    5b6e:	0000                	unimp
    5b70:	7245                	lui	tp,0xffff1
    5b72:	7361                	lui	t1,0xffff8
    5b74:	2065                	jal	5c1c <_read+0x154>
    5b76:	6c66                	flw	fs8,88(sp)
    5b78:	7361                	lui	t1,0xffff8
    5b7a:	0d68                	addi	a0,sp,668
    5b7c:	0000                	unimp
    5b7e:	0000                	unimp
    5b80:	74697257          	0x74697257
    5b84:	2065                	jal	5c2c <_read+0x164>
    5b86:	6c66                	flw	fs8,88(sp)
    5b88:	7361                	lui	t1,0xffff8
    5b8a:	0d68                	addi	a0,sp,668
    5b8c:	0000                	unimp
    5b8e:	0000                	unimp
    5b90:	6425                	lui	s0,0x9
    5b92:	4220                	lw	s0,64(a2)
    5b94:	7479                	lui	s0,0xffffe
    5b96:	2065                	jal	5c3e <_read+0x176>
    5b98:	6556                	flw	fa0,84(sp)
    5b9a:	6972                	flw	fs2,28(sp)
    5b9c:	7966                	flw	fs2,120(sp)
    5b9e:	5320                	lw	s0,96(a4)
    5ba0:	6375                	lui	t1,0x1d
    5ba2:	0a0d                	addi	s4,s4,3
    5ba4:	0000                	unimp
    5ba6:	0000                	unimp
    5ba8:	6425                	lui	s0,0x9
    5baa:	4220                	lw	s0,64(a2)
    5bac:	7479                	lui	s0,0xffffe
    5bae:	2065                	jal	5c56 <_read+0x18e>
    5bb0:	6556                	flw	fa0,84(sp)
    5bb2:	6972                	flw	fs2,28(sp)
    5bb4:	7966                	flw	fs2,120(sp)
    5bb6:	4620                	lw	s0,72(a2)
    5bb8:	6961                	lui	s2,0x18
    5bba:	0d6c                	addi	a1,sp,668
    5bbc:	000a                	c.slli	zero,0x2
    5bbe:	0000                	unimp
    5bc0:	40533333          	0x40533333
    5bc4:	6554                	flw	fa3,12(a0)
    5bc6:	706d                	c.lui	zero,0xffffb
    5bc8:	4d3a                	lw	s10,140(sp)
    5bca:	3d65646f          	jal	s0,5bfa0 <_data_lma+0x56054>
    5bce:	6425                	lui	s0,0x9
    5bd0:	0a0d                	addi	s4,s4,3
    5bd2:	0000                	unimp
    5bd4:	0000                	unimp
    5bd6:	0000                	unimp
    5bd8:	759c                	flw	fa5,40(a1)
    5bda:	8800                	0x8800
    5bdc:	e43c                	fsw	fa5,72(s0)
    5bde:	00007e37          	lui	t3,0x7
    5be2:	0000                	unimp
    5be4:	0000                	unimp
    5be6:	fff0                	fsw	fa2,124(a5)
    5be8:	0000                	unimp
    5bea:	e000                	fsw	fs0,0(s0)
    5bec:	ffff                	0xffff
    5bee:	6f6cc7ef          	jal	a5,d22e4 <_data_lma+0xcc398>
    5bf2:	00000067          	jr	zero # 0 <_sinit>
	...
    5bfe:	c350                	sw	a2,4(a4)
    5c00:	0000                	unimp
    5c02:	0000                	unimp
    5c04:	0000                	unimp
    5c06:	4350                	lw	a2,4(a4)
    5c08:	0000                	unimp
    5c0a:	fee0                	fsw	fs0,124(a3)
    5c0c:	2e42                	lhu	s0,28(a2)
    5c0e:	3fe6                	lhu	s1,62(a5)
    5c10:	3c76                	lhu	a3,62(s0)
    5c12:	3579                	jal	5aa0 <_close+0x8>
    5c14:	3dea39ef          	jal	s3,a8ff2 <_data_lma+0xa30a6>
    5c18:	5555                	li	a0,-11
    5c1a:	5555                	li	a0,-11
    5c1c:	5555                	li	a0,-11
    5c1e:	3fd5                	jal	5c12 <_read+0x14a>
    5c20:	0000                	unimp
    5c22:	0000                	unimp
    5c24:	0000                	unimp
    5c26:	3fe0                	lbu	s0,31(a5)
    5c28:	0000                	unimp
    5c2a:	0000                	unimp
    5c2c:	0000                	unimp
    5c2e:	4000                	lw	s0,0(s0)
    5c30:	5244                	lw	s1,36(a2)
    5c32:	df3e                	sw	a5,188(sp)
    5c34:	f112                	fsw	ft4,160(sp)
    5c36:	3fc2                	lhu	s0,60(a5)
    5c38:	03de                	slli	t2,t2,0x17
    5c3a:	466496cb          	fnmsub.q	fa3,fs1,ft6,fs0,rtz
    5c3e:	93593fc7          	fmsub.d	ft11,fs2,fs5,fs2,rup
    5c42:	9422                	add	s0,s0,s0
    5c44:	4924                	lw	s1,80(a0)
    5c46:	3fd2                	lhu	a2,60(a5)
    5c48:	55555593          	0x55555593
    5c4c:	5555                	li	a0,-11
    5c4e:	3fe5                	jal	5c46 <_read+0x17e>
    5c50:	c69f d078 9a09      	0x9a09d078c69f
    5c56:	78af3fc3          	fmadd.s	ft11,ft10,fa0,fa5,rup
    5c5a:	1d8e                	slli	s11,s11,0x23
    5c5c:	71c5                	lui	gp,0xffff1
    5c5e:	3fcc                	lbu	a1,29(a5)
    5c60:	fa04                	fsw	fs1,48(a2)
    5c62:	99999997          	auipc	s3,0x99999
    5c66:	3fd9                	jal	5c3c <_read+0x174>
    5c68:	0000                	unimp
    5c6a:	0000                	unimp
    5c6c:	0000                	unimp
    5c6e:	7ff8                	flw	fa4,124(a5)
    5c70:	c95e                	sw	s7,144(sp)
    5c72:	ffff                	0xffff
    5c74:	c7e2                	sw	s8,204(sp)
    5c76:	ffff                	0xffff
    5c78:	c8f2                	sw	t3,80(sp)
    5c7a:	ffff                	0xffff
    5c7c:	c8fa                	sw	t5,80(sp)
    5c7e:	ffff                	0xffff
    5c80:	c8f2                	sw	t3,80(sp)
    5c82:	ffff                	0xffff
    5c84:	c812                	sw	tp,16(sp)
    5c86:	ffff                	0xffff
    5c88:	c8f2                	sw	t3,80(sp)
    5c8a:	ffff                	0xffff
    5c8c:	c8fa                	sw	t5,80(sp)
    5c8e:	ffff                	0xffff
    5c90:	c7e2                	sw	s8,204(sp)
    5c92:	ffff                	0xffff
    5c94:	c7e2                	sw	s8,204(sp)
    5c96:	ffff                	0xffff
    5c98:	c812                	sw	tp,16(sp)
    5c9a:	ffff                	0xffff
    5c9c:	c8fa                	sw	t5,80(sp)
    5c9e:	ffff                	0xffff
    5ca0:	c954                	sw	a3,20(a0)
    5ca2:	ffff                	0xffff
    5ca4:	c954                	sw	a3,20(a0)
    5ca6:	ffff                	0xffff
    5ca8:	c954                	sw	a3,20(a0)
    5caa:	ffff                	0xffff
    5cac:	c812                	sw	tp,16(sp)
    5cae:	ffff                	0xffff
    5cb0:	cfb8                	sw	a4,88(a5)
    5cb2:	ffff                	0xffff
    5cb4:	ceaa                	sw	a0,92(sp)
    5cb6:	ffff                	0xffff
    5cb8:	ceaa                	sw	a0,92(sp)
    5cba:	ffff                	0xffff
    5cbc:	cea8                	sw	a0,88(a3)
    5cbe:	ffff                	0xffff
    5cc0:	ceb0                	sw	a2,88(a3)
    5cc2:	ffff                	0xffff
    5cc4:	ceb0                	sw	a2,88(a3)
    5cc6:	ffff                	0xffff
    5cc8:	ce76                	sw	t4,28(sp)
    5cca:	ffff                	0xffff
    5ccc:	cea8                	sw	a0,88(a3)
    5cce:	ffff                	0xffff
    5cd0:	ceb0                	sw	a2,88(a3)
    5cd2:	ffff                	0xffff
    5cd4:	ce76                	sw	t4,28(sp)
    5cd6:	ffff                	0xffff
    5cd8:	ceb0                	sw	a2,88(a3)
    5cda:	ffff                	0xffff
    5cdc:	cea8                	sw	a0,88(a3)
    5cde:	ffff                	0xffff
    5ce0:	cfa4                	sw	s1,88(a5)
    5ce2:	ffff                	0xffff
    5ce4:	cfa4                	sw	s1,88(a5)
    5ce6:	ffff                	0xffff
    5ce8:	cfa4                	sw	s1,88(a5)
    5cea:	ffff                	0xffff
    5cec:	ce76                	sw	t4,28(sp)
    5cee:	ffff                	0xffff
    5cf0:	df8c                	sw	a1,56(a5)
    5cf2:	ffff                	0xffff
    5cf4:	deb2                	sw	a2,124(sp)
    5cf6:	ffff                	0xffff
    5cf8:	df86                	sw	ra,252(sp)
    5cfa:	ffff                	0xffff
    5cfc:	deba                	sw	a4,124(sp)
    5cfe:	ffff                	0xffff
    5d00:	df86                	sw	ra,252(sp)
    5d02:	ffff                	0xffff
    5d04:	de80                	sw	s0,56(a3)
    5d06:	ffff                	0xffff
    5d08:	df86                	sw	ra,252(sp)
    5d0a:	ffff                	0xffff
    5d0c:	deba                	sw	a4,124(sp)
    5d0e:	ffff                	0xffff
    5d10:	deb2                	sw	a2,124(sp)
    5d12:	ffff                	0xffff
    5d14:	deb2                	sw	a2,124(sp)
    5d16:	ffff                	0xffff
    5d18:	de80                	sw	s0,56(a3)
    5d1a:	ffff                	0xffff
    5d1c:	deba                	sw	a4,124(sp)
    5d1e:	ffff                	0xffff
    5d20:	dec0                	sw	s0,60(a3)
    5d22:	ffff                	0xffff
    5d24:	dec0                	sw	s0,60(a3)
    5d26:	ffff                	0xffff
    5d28:	dec0                	sw	s0,60(a3)
    5d2a:	ffff                	0xffff
    5d2c:	de80                	sw	s0,56(a3)
    5d2e:	ffff                	0xffff
    5d30:	de72                	sw	t3,60(sp)
    5d32:	ffff                	0xffff
    5d34:	de72                	sw	t3,60(sp)
    5d36:	ffff                	0xffff
    5d38:	df46                	sw	a7,188(sp)
    5d3a:	ffff                	0xffff
    5d3c:	e022                	fsw	fs0,0(sp)
    5d3e:	ffff                	0xffff
    5d40:	df46                	sw	a7,188(sp)
    5d42:	ffff                	0xffff
    5d44:	de40                	sw	s0,60(a2)
    5d46:	ffff                	0xffff
    5d48:	df46                	sw	a7,188(sp)
    5d4a:	ffff                	0xffff
    5d4c:	e022                	fsw	fs0,0(sp)
    5d4e:	ffff                	0xffff
    5d50:	de72                	sw	t3,60(sp)
    5d52:	ffff                	0xffff
    5d54:	de72                	sw	t3,60(sp)
    5d56:	ffff                	0xffff
    5d58:	de40                	sw	s0,60(a2)
    5d5a:	ffff                	0xffff
    5d5c:	e022                	fsw	fs0,0(sp)
    5d5e:	ffff                	0xffff
    5d60:	de80                	sw	s0,56(a3)
    5d62:	ffff                	0xffff
    5d64:	de80                	sw	s0,56(a3)
    5d66:	ffff                	0xffff
    5d68:	de80                	sw	s0,56(a3)
    5d6a:	ffff                	0xffff
    5d6c:	de40                	sw	s0,60(a2)
    5d6e:	ffff                	0xffff
    5d70:	e29a                	fsw	ft6,68(sp)
    5d72:	ffff                	0xffff
    5d74:	e1e8                	fsw	fa0,68(a1)
    5d76:	ffff                	0xffff
    5d78:	e1e8                	fsw	fa0,68(a1)
    5d7a:	ffff                	0xffff
    5d7c:	e1e6                	fsw	fs9,192(sp)
    5d7e:	ffff                	0xffff
    5d80:	e1ec                	fsw	fa1,68(a1)
    5d82:	ffff                	0xffff
    5d84:	e1ec                	fsw	fa1,68(a1)
    5d86:	ffff                	0xffff
    5d88:	e1bc                	fsw	fa5,64(a1)
    5d8a:	ffff                	0xffff
    5d8c:	e1e6                	fsw	fs9,192(sp)
    5d8e:	ffff                	0xffff
    5d90:	e1ec                	fsw	fa1,68(a1)
    5d92:	ffff                	0xffff
    5d94:	e1bc                	fsw	fa5,64(a1)
    5d96:	ffff                	0xffff
    5d98:	e1ec                	fsw	fa1,68(a1)
    5d9a:	ffff                	0xffff
    5d9c:	e1e6                	fsw	fs9,192(sp)
    5d9e:	ffff                	0xffff
    5da0:	e288                	fsw	fa0,0(a3)
    5da2:	ffff                	0xffff
    5da4:	e288                	fsw	fa0,0(a3)
    5da6:	ffff                	0xffff
    5da8:	e288                	fsw	fa0,0(a3)
    5daa:	ffff                	0xffff
    5dac:	e1bc                	fsw	fa5,64(a1)
    5dae:	ffff                	0xffff

00005db0 <__clz_tab>:
    5db0:	0100 0202 0303 0303 0404 0404 0404 0404     ................
    5dc0:	0505 0505 0505 0505 0505 0505 0505 0505     ................
    5dd0:	0606 0606 0606 0606 0606 0606 0606 0606     ................
    5de0:	0606 0606 0606 0606 0606 0606 0606 0606     ................
    5df0:	0707 0707 0707 0707 0707 0707 0707 0707     ................
    5e00:	0707 0707 0707 0707 0707 0707 0707 0707     ................
    5e10:	0707 0707 0707 0707 0707 0707 0707 0707     ................
    5e20:	0707 0707 0707 0707 0707 0707 0707 0707     ................
    5e30:	0808 0808 0808 0808 0808 0808 0808 0808     ................
    5e40:	0808 0808 0808 0808 0808 0808 0808 0808     ................
    5e50:	0808 0808 0808 0808 0808 0808 0808 0808     ................
    5e60:	0808 0808 0808 0808 0808 0808 0808 0808     ................
    5e70:	0808 0808 0808 0808 0808 0808 0808 0808     ................
    5e80:	0808 0808 0808 0808 0808 0808 0808 0808     ................
    5e90:	0808 0808 0808 0808 0808 0808 0808 0808     ................
    5ea0:	0808 0808 0808 0808 0808 0808 0808 0808     ................

00005eb0 <__sf_fake_stderr>:
	...

00005ed0 <__sf_fake_stdin>:
	...

00005ef0 <__sf_fake_stdout>:
	...
    5f10:	2d23 2b30 0020 0000 6c68 004c 6665 4567     #-0+ ...hlL.efgE
    5f20:	4746 0000 3130 3332 3534 3736 3938 4241     FG..0123456789AB
    5f30:	4443 4645 0000 0000 3130 3332 3534 3736     CDEF....01234567
    5f40:	3938 6261 6463 6665 0000 0000               89abcdef....
